
.//Obj/W806.elf:     file format elf32-csky-little


Disassembly of section .text:

08010400 <__Vectors>:
 8010400:	00 05 01 08 d0 05 01 08 d0 05 01 08 d0 05 01 08     ................
 8010410:	d0 05 01 08 d0 05 01 08 d0 05 01 08 d0 05 01 08     ................
 8010420:	d0 05 01 08 d0 05 01 08 d0 05 01 08 d0 05 01 08     ................
 8010430:	d0 05 01 08 d0 05 01 08 d0 05 01 08 d0 05 01 08     ................
 8010440:	d0 05 01 08 d0 05 01 08 d0 05 01 08 d0 05 01 08     ................
 8010450:	d0 05 01 08 d0 05 01 08 18 06 01 08 d0 05 01 08     ................
 8010460:	d0 05 01 08 d0 05 01 08 d0 05 01 08 d0 05 01 08     ................
 8010470:	d0 05 01 08 d0 05 01 08 d0 05 01 08 d0 05 01 08     ................
 8010480:	d0 05 01 08 d0 05 01 08 d0 05 01 08 d0 05 01 08     ................
 8010490:	d0 05 01 08 d0 05 01 08 d0 05 01 08 d0 05 01 08     ................
 80104a0:	d0 05 01 08 d0 05 01 08 d0 05 01 08 d0 05 01 08     ................
 80104b0:	d0 05 01 08 d0 05 01 08 d0 05 01 08 d0 05 01 08     ................
 80104c0:	d0 05 01 08 d0 05 01 08 d0 05 01 08 d0 05 01 08     ................
 80104d0:	d0 05 01 08 d0 05 01 08 d0 05 01 08 d0 05 01 08     ................
 80104e0:	d0 05 01 08 cc 5c 01 08 d0 05 01 08 d0 05 01 08     .....\..........
 80104f0:	d0 05 01 08 d0 05 01 08 d0 05 01 08 d0 05 01 08     ................

08010500 <Reset_Handler>:
    .align  2
    .globl  Reset_Handler
    .type   Reset_Handler, %function
Reset_Handler:
#ifdef CONFIG_KERNEL_NONE
    lrw     r0, 0xe0000200
 8010500:	1019      	lrw      	r0, 0xe0000200	// 8010564 <__exit+0x4>
#else
    lrw     r0, 0x80000200
    mtcr    r0, psr
#endif
    mtcr    r0, psr
 8010502:	c0006420 	mtcr      	r0, cr<0, 0>

    lrw     r0, g_top_irqstack
 8010506:	1019      	lrw      	r0, 0x2000117c	// 8010568 <__exit+0x8>
    mov     sp, r0
 8010508:	6f83      	mov      	r14, r0

/*
 *	move __Vectors to irq_vectors
 */
    lrw     r1, __Vectors
 801050a:	1039      	lrw      	r1, 0x8010400	// 801056c <__exit+0xc>
    lrw     r2, __vdata_start__
 801050c:	1059      	lrw      	r2, 0x20000000	// 8010570 <__exit+0x10>
    lrw     r3, __vdata_end__
 801050e:	107a      	lrw      	r3, 0x20000100	// 8010574 <__exit+0x14>

    subu    r3, r2
 8010510:	60ca      	subu      	r3, r2
    cmpnei  r3, 0
 8010512:	3b40      	cmpnei      	r3, 0
    bf      .L_loopv0_done
 8010514:	0c08      	bf      	0x8010524	// 8010524 <Reset_Handler+0x24>

.L_loopv0:
    ldw     r0, (r1, 0)
 8010516:	9100      	ld.w      	r0, (r1, 0x0)
    stw     r0, (r2, 0)
 8010518:	b200      	st.w      	r0, (r2, 0x0)
    addi    r1, 4
 801051a:	2103      	addi      	r1, 4
    addi    r2, 4
 801051c:	2203      	addi      	r2, 4
    subi    r3, 4
 801051e:	2b03      	subi      	r3, 4
    cmpnei  r3, 0
 8010520:	3b40      	cmpnei      	r3, 0
    bt      .L_loopv0
 8010522:	0bfa      	bt      	0x8010516	// 8010516 <Reset_Handler+0x16>
 *    __data_start__: VMA of start of the section to copy to
 *    __data_end__: VMA of end of the section to copy to
 *
 *  All addresses must be aligned to 4 bytes boundary.
 */
    lrw     r1, __erodata
 8010524:	1035      	lrw      	r1, 0x80538cc	// 8010578 <__exit+0x18>
    lrw     r2, __data_start__
 8010526:	1056      	lrw      	r2, 0x20000100	// 801057c <__exit+0x1c>
    lrw     r3, __data_end__
 8010528:	1076      	lrw      	r3, 0x2000017c	// 8010580 <__exit+0x20>

    subu    r3, r2
 801052a:	60ca      	subu      	r3, r2
    cmpnei  r3, 0
 801052c:	3b40      	cmpnei      	r3, 0
    bf      .L_loop0_done
 801052e:	0c08      	bf      	0x801053e	// 801053e <Reset_Handler+0x3e>

.L_loop0:
    ldw     r0, (r1, 0)
 8010530:	9100      	ld.w      	r0, (r1, 0x0)
    stw     r0, (r2, 0)
 8010532:	b200      	st.w      	r0, (r2, 0x0)
    addi    r1, 4
 8010534:	2103      	addi      	r1, 4
    addi    r2, 4
 8010536:	2203      	addi      	r2, 4
    subi    r3, 4
 8010538:	2b03      	subi      	r3, 4
    cmpnei  r3, 0
 801053a:	3b40      	cmpnei      	r3, 0
    bt      .L_loop0
 801053c:	0bfa      	bt      	0x8010530	// 8010530 <Reset_Handler+0x30>
 *    __bss_end__: end of the BSS section.
 *
 *  Both addresses must be aligned to 4 bytes boundary.
 */
 #if 1
    lrw     r1, __bss_start__
 801053e:	1032      	lrw      	r1, 0x2000017c	// 8010584 <__exit+0x24>
    lrw     r2, __bss_end__
 8010540:	1052      	lrw      	r2, 0x200018fc	// 8010588 <__exit+0x28>

    movi    r0, 0
 8010542:	3000      	movi      	r0, 0

    subu    r2, r1
 8010544:	6086      	subu      	r2, r1
    cmpnei  r2, 0
 8010546:	3a40      	cmpnei      	r2, 0
    bf      .L_loop1_done
 8010548:	0c06      	bf      	0x8010554	// 8010554 <Reset_Handler+0x54>

.L_loop1:
    stw     r0, (r1, 0)
 801054a:	b100      	st.w      	r0, (r1, 0x0)
    addi    r1, 4
 801054c:	2103      	addi      	r1, 4
    subi    r2, 4
 801054e:	2a03      	subi      	r2, 4
    cmpnei  r2, 0
 8010550:	3a40      	cmpnei      	r2, 0
    bt      .L_loop1
 8010552:	0bfc      	bt      	0x801054a	// 801054a <Reset_Handler+0x4a>
.L_loop1_done:
#endif

#ifndef __NO_SYSTEM_INIT
    jbsr    SystemInit
 8010554:	e0002c5a 	bsr      	0x8015e08	// 8015e08 <SystemInit>
#endif

#ifndef __NO_BOARD_INIT
    jbsr    board_init
 8010558:	e0002cae 	bsr      	0x8015eb4	// 8015eb4 <board_init>
#endif

    jbsr    main
 801055c:	e0002a3c 	bsr      	0x80159d4	// 80159d4 <main>

08010560 <__exit>:
    .size   Reset_Handler, . - Reset_Handler

__exit:
    br      __exit
 8010560:	0400      	br      	0x8010560	// 8010560 <__exit>
 8010562:	0000      	.short	0x0000
 8010564:	e0000200 	.long	0xe0000200
 8010568:	2000117c 	.long	0x2000117c
 801056c:	08010400 	.long	0x08010400
 8010570:	20000000 	.long	0x20000000
 8010574:	20000100 	.long	0x20000100
 8010578:	080538cc 	.long	0x080538cc
 801057c:	20000100 	.long	0x20000100
 8010580:	2000017c 	.long	0x2000017c
 8010584:	2000017c 	.long	0x2000017c
 8010588:	200018fc 	.long	0x200018fc

0801058c <trap>:
 * default exception handler
 ******************************************************************************/
    .global trap
    .type   trap, %function
trap:
    psrset  ee
 801058c:	c1007420 	psrset      	ee

    subi    sp, 4
 8010590:	1421      	subi      	r14, r14, 4
    stw     r13, (sp)
 8010592:	ddae2000 	st.w      	r13, (r14, 0x0)
    addi    sp, 4
 8010596:	1401      	addi      	r14, r14, 4

    lrw     r13, g_trap_sp
 8010598:	ea8d000f 	lrw      	r13, 0x2000137c	// 80105d4 <ADC_IRQHandler+0x4>
    stw     sp, (r13)
 801059c:	ddcd2000 	st.w      	r14, (r13, 0x0)

    lrw     sp, g_top_trapstack
 80105a0:	ea8e000e 	lrw      	r14, 0x2000137c	// 80105d8 <ADC_IRQHandler+0x8>

    subi    sp, 72
 80105a4:	1432      	subi      	r14, r14, 72
    stm     r0-r12, (sp)
 80105a6:	d40e1c2c 	stm      	r0-r12, (r14)

    lrw     r0, g_trap_sp
 80105aa:	100b      	lrw      	r0, 0x2000137c	// 80105d4 <ADC_IRQHandler+0x4>
    ldw     r0, (r0)
 80105ac:	9000      	ld.w      	r0, (r0, 0x0)

    stw     r0, (sp, 56) /* save r14 */
 80105ae:	b80e      	st.w      	r0, (r14, 0x38)

    subi    r0, 4
 80105b0:	2803      	subi      	r0, 4
    ldw     r13, (r0)
 80105b2:	d9a02000 	ld.w      	r13, (r0, 0x0)
    stw     r13, (sp, 52)
 80105b6:	ddae200d 	st.w      	r13, (r14, 0x34)

    stw     r15, (sp, 60)
 80105ba:	ddee200f 	st.w      	r15, (r14, 0x3c)
    mfcr    r0, epsr
 80105be:	c0026020 	mfcr      	r0, cr<2, 0>
    stw     r0, (sp, 64)
 80105c2:	b810      	st.w      	r0, (r14, 0x40)
    mfcr    r0, epc
 80105c4:	c0046020 	mfcr      	r0, cr<4, 0>
    stw     r0, (sp, 68)
 80105c8:	b811      	st.w      	r0, (r14, 0x44)

    mov     r0, sp
 80105ca:	6c3b      	mov      	r0, r14

    jbsr    trap_c
 80105cc:	e0002c36 	bsr      	0x8015e38	// 8015e38 <trap_c>

080105d0 <ADC_IRQHandler>:

    .align  2
    .weak   Default_Handler
    .type   Default_Handler, %function
Default_Handler:
    br      trap
 80105d0:	07de      	br      	0x801058c	// 801058c <trap>
 80105d2:	0000      	.short	0x0000
 80105d4:	2000137c 	.long	0x2000137c
 80105d8:	2000137c 	.long	0x2000137c

080105dc <cpu_yeild>:
 *
 ********************************************************************/
.global cpu_yeild
.type   cpu_yeild, %function
cpu_yeild:
    lrw    r0, VIC_TSPDR
 80105dc:	1106      	lrw      	r0, 0xe000ec08	// 8010674 <tspend_handler+0x5c>
    bgeni  r1, 0
 80105de:	ea010001 	movi      	r1, 1
    stw    r1, (r0)
 80105e2:	b020      	st.w      	r1, (r0, 0x0)
    rts
 80105e4:	783c      	jmp      	r15

080105e6 <vPortStartTask>:
 *
 ********************************************************************/
.global vPortStartTask
.type   vPortStartTask, %function
vPortStartTask:
    psrclr   ie
 80105e6:	c0807020 	psrclr      	ie
    lrw      r4, pxCurrentTCB
 80105ea:	1184      	lrw      	r4, 0x20001380	// 8010678 <tspend_handler+0x60>
    ld.w     r4, (r4)
 80105ec:	9480      	ld.w      	r4, (r4, 0x0)
    ld.w     sp, (r4)
 80105ee:	d9c42000 	ld.w      	r14, (r4, 0x0)

    ldw      r0, (sp, 192)
 80105f2:	9910      	ld.w      	r0, (r14, 0xc0)
    mtcr     r0, epc
 80105f4:	c0006424 	mtcr      	r0, cr<4, 0>
    ldw      r0, (sp, 188)
 80105f8:	990f      	ld.w      	r0, (r14, 0xbc)
    mtcr     r0, epsr
 80105fa:	c0006422 	mtcr      	r0, cr<2, 0>

    ldm      r0-r13, (sp)
 80105fe:	d00e1c2d 	ldm      	r0-r13, (r14)
    ldw      r15, (sp, 56)
 8010602:	d9ee200e 	ld.w      	r15, (r14, 0x38)
    addi     sp, 60
 8010606:	140f      	addi      	r14, r14, 60
    ldm      r16-r31, (sp)
 8010608:	d20e1c2f 	ldm      	r16-r31, (r14)
    addi     sp, 64
 801060c:	1410      	addi      	r14, r14, 64
    fldms    vr0-vr15, (sp)
 801060e:	f5ee3000 	fldms      	fr0-fr15, (r14)
    addi     sp, 72
 8010612:	1412      	addi      	r14, r14, 72

    rte
 8010614:	c0004020 	rte

08010618 <tspend_handler>:
 *
 ********************************************************************/
.global tspend_handler
.type   tspend_handler, %function
tspend_handler:
    subi     sp, 196
 8010618:	1531      	subi      	r14, r14, 196
    stm      r0-r13, (sp)
 801061a:	d40e1c2d 	stm      	r0-r13, (r14)
    stw      r15, (sp, 56)
 801061e:	ddee200e 	st.w      	r15, (r14, 0x38)
    addi     r0, sp, 60
 8010622:	180f      	addi      	r0, r14, 60
    stm      r16-r31, (r0)
 8010624:	d6001c2f 	stm      	r16-r31, (r0)
    addi     r0, 64
 8010628:	203f      	addi      	r0, 64
    fstms    vr0-vr15, (r0)
 801062a:	f5e03400 	fstms      	fr0-fr15, (r0)
    mfcr     r1, epsr
 801062e:	c0026021 	mfcr      	r1, cr<2, 0>
    stw      r1, (r0, 64)
 8010632:	b030      	st.w      	r1, (r0, 0x40)
    mfcr     r1, epc
 8010634:	c0046021 	mfcr      	r1, cr<4, 0>
    stw      r1, (r0, 68)
 8010638:	b031      	st.w      	r1, (r0, 0x44)

    lrw      r2, pxCurrentTCB
 801063a:	1050      	lrw      	r2, 0x20001380	// 8010678 <tspend_handler+0x60>
    ld.w     r3, (r2)
 801063c:	9260      	ld.w      	r3, (r2, 0x0)
    st.w     sp, (r3)
 801063e:	ddc32000 	st.w      	r14, (r3, 0x0)

    jbsr     vTaskSwitchContext
 8010642:	e0004093 	bsr      	0x8018768	// 8018768 <vTaskSwitchContext>

    lrw      r4, pxCurrentTCB
 8010646:	108d      	lrw      	r4, 0x20001380	// 8010678 <tspend_handler+0x60>
    ld.w     r4, (r4)
 8010648:	9480      	ld.w      	r4, (r4, 0x0)
    ld.w     sp, (r4)
 801064a:	d9c42000 	ld.w      	r14, (r4, 0x0)

    ldw      r0, (sp, 192)
 801064e:	9910      	ld.w      	r0, (r14, 0xc0)
    mtcr     r0, epc
 8010650:	c0006424 	mtcr      	r0, cr<4, 0>
    ldw      r0, (sp, 188)
 8010654:	990f      	ld.w      	r0, (r14, 0xbc)
    mtcr     r0, epsr
 8010656:	c0006422 	mtcr      	r0, cr<2, 0>

    ldm      r0-r13, (sp)
 801065a:	d00e1c2d 	ldm      	r0-r13, (r14)
    ldw      r15, (sp, 56)
 801065e:	d9ee200e 	ld.w      	r15, (r14, 0x38)
    addi     sp, 60
 8010662:	140f      	addi      	r14, r14, 60
    ldm      r16-r31, (sp)
 8010664:	d20e1c2f 	ldm      	r16-r31, (r14)
    addi     sp, 64
 8010668:	1410      	addi      	r14, r14, 64
    fldms    vr0-vr15, (sp)
 801066a:	f5ee3000 	fldms      	fr0-fr15, (r14)
    addi     sp, 72
 801066e:	1412      	addi      	r14, r14, 72

    rte
 8010670:	c0004020 	rte
 8010674:	e000ec08 	.long	0xe000ec08
 8010678:	20001380 	.long	0x20001380

0801067c <__fixunsdfsi>:
 801067c:	14d2      	push      	r4-r5, r15
 801067e:	3200      	movi      	r2, 0
 8010680:	ea2341e0 	movih      	r3, 16864
 8010684:	6d03      	mov      	r4, r0
 8010686:	6d47      	mov      	r5, r1
 8010688:	e00006b8 	bsr      	0x80113f8	// 80113f8 <__gedf2>
 801068c:	e9a00007 	bhsz      	r0, 0x801069a	// 801069a <__fixunsdfsi+0x1e>
 8010690:	6c13      	mov      	r0, r4
 8010692:	6c57      	mov      	r1, r5
 8010694:	e0000722 	bsr      	0x80114d8	// 80114d8 <__fixdfsi>
 8010698:	1492      	pop      	r4-r5, r15
 801069a:	3200      	movi      	r2, 0
 801069c:	ea2341e0 	movih      	r3, 16864
 80106a0:	6c13      	mov      	r0, r4
 80106a2:	6c57      	mov      	r1, r5
 80106a4:	e00004c4 	bsr      	0x801102c	// 801102c <__subdf3>
 80106a8:	e0000718 	bsr      	0x80114d8	// 80114d8 <__fixdfsi>
 80106ac:	ea238000 	movih      	r3, 32768
 80106b0:	600c      	addu      	r0, r3
 80106b2:	1492      	pop      	r4-r5, r15

080106b4 <__udivdi3>:
 80106b4:	14c5      	push      	r4-r8
 80106b6:	6f4b      	mov      	r13, r2
 80106b8:	6d4f      	mov      	r5, r3
 80106ba:	6d03      	mov      	r4, r0
 80106bc:	6f07      	mov      	r12, r1
 80106be:	e9230054 	bnez      	r3, 0x8010766	// 8010766 <__udivdi3+0xb2>
 80106c2:	6484      	cmphs      	r1, r2
 80106c4:	0870      	bt      	0x80107a4	// 80107a4 <__udivdi3+0xf0>
 80106c6:	eb02ffff 	cmphsi      	r2, 65536
 80106ca:	0cc4      	bf      	0x8010852	// 8010852 <__udivdi3+0x19e>
 80106cc:	c6e05023 	bmaski      	r3, 24
 80106d0:	648c      	cmphs      	r3, r2
 80106d2:	3518      	movi      	r5, 24
 80106d4:	3310      	movi      	r3, 16
 80106d6:	c4a30c40 	inct      	r5, r3, 0
 80106da:	01dc      	lrw      	r6, 0x8018824	// 80109e4 <__udivdi3+0x330>
 80106dc:	c4a24043 	lsr      	r3, r2, r5
 80106e0:	d0660023 	ldr.b      	r3, (r6, r3 << 0)
 80106e4:	614c      	addu      	r5, r3
 80106e6:	3320      	movi      	r3, 32
 80106e8:	60d6      	subu      	r3, r5
 80106ea:	e903000c 	bez      	r3, 0x8010702	// 8010702 <__udivdi3+0x4e>
 80106ee:	c462402d 	lsl      	r13, r2, r3
 80106f2:	c4a04045 	lsr      	r5, r0, r5
 80106f6:	c4614022 	lsl      	r2, r1, r3
 80106fa:	c445242c 	or      	r12, r5, r2
 80106fe:	c4604024 	lsl      	r4, r0, r3
 8010702:	c60d4841 	lsri      	r1, r13, 16
 8010706:	c42c8022 	divu      	r2, r12, r1
 801070a:	c4228423 	mult      	r3, r2, r1
 801070e:	630e      	subu      	r12, r3
 8010710:	c60c4823 	lsli      	r3, r12, 16
 8010714:	c40d55e5 	zext      	r5, r13, 15, 0
 8010718:	c604484c 	lsri      	r12, r4, 16
 801071c:	c4458420 	mult      	r0, r5, r2
 8010720:	6f0c      	or      	r12, r3
 8010722:	6430      	cmphs      	r12, r0
 8010724:	0808      	bt      	0x8010734	// 8010734 <__udivdi3+0x80>
 8010726:	6334      	addu      	r12, r13
 8010728:	6770      	cmphs      	r12, r13
 801072a:	5a63      	subi      	r3, r2, 1
 801072c:	0c03      	bf      	0x8010732	// 8010732 <__udivdi3+0x7e>
 801072e:	6430      	cmphs      	r12, r0
 8010730:	0d56      	bf      	0x80109dc	// 80109dc <__udivdi3+0x328>
 8010732:	6c8f      	mov      	r2, r3
 8010734:	6302      	subu      	r12, r0
 8010736:	c42c8020 	divu      	r0, r12, r1
 801073a:	7c40      	mult      	r1, r0
 801073c:	6306      	subu      	r12, r1
 801073e:	c60c482c 	lsli      	r12, r12, 16
 8010742:	c40455e4 	zext      	r4, r4, 15, 0
 8010746:	7d40      	mult      	r5, r0
 8010748:	6d30      	or      	r4, r12
 801074a:	6550      	cmphs      	r4, r5
 801074c:	6c43      	mov      	r1, r0
 801074e:	0808      	bt      	0x801075e	// 801075e <__udivdi3+0xaa>
 8010750:	6134      	addu      	r4, r13
 8010752:	6750      	cmphs      	r4, r13
 8010754:	5863      	subi      	r3, r0, 1
 8010756:	0d21      	bf      	0x8010998	// 8010998 <__udivdi3+0x2e4>
 8010758:	6550      	cmphs      	r4, r5
 801075a:	091f      	bt      	0x8010998	// 8010998 <__udivdi3+0x2e4>
 801075c:	2901      	subi      	r1, 2
 801075e:	4210      	lsli      	r0, r2, 16
 8010760:	6c04      	or      	r0, r1
 8010762:	3100      	movi      	r1, 0
 8010764:	1485      	pop      	r4-r8
 8010766:	64c4      	cmphs      	r1, r3
 8010768:	0c6b      	bf      	0x801083e	// 801083e <__udivdi3+0x18a>
 801076a:	eb03ffff 	cmphsi      	r3, 65536
 801076e:	0c6b      	bf      	0x8010844	// 8010844 <__udivdi3+0x190>
 8010770:	c6e0502c 	bmaski      	r12, 24
 8010774:	64f0      	cmphs      	r12, r3
 8010776:	ea0d0018 	movi      	r13, 24
 801077a:	ea0c0010 	movi      	r12, 16
 801077e:	c58d0c20 	incf      	r12, r13, 0
 8010782:	0386      	lrw      	r4, 0x8018824	// 80109e4 <__udivdi3+0x330>
 8010784:	c583404d 	lsr      	r13, r3, r12
 8010788:	d1a4002d 	ldr.b      	r13, (r4, r13 << 0)
 801078c:	6370      	addu      	r13, r12
 801078e:	3520      	movi      	r5, 32
 8010790:	6176      	subu      	r5, r13
 8010792:	e925006c 	bnez      	r5, 0x801086a	// 801086a <__udivdi3+0x1b6>
 8010796:	644c      	cmphs      	r3, r1
 8010798:	0d0d      	bf      	0x80109b2	// 80109b2 <__udivdi3+0x2fe>
 801079a:	6480      	cmphs      	r0, r2
 801079c:	c4000500 	mvc      	r0
 80107a0:	6c57      	mov      	r1, r5
 80107a2:	1485      	pop      	r4-r8
 80107a4:	e9220006 	bnez      	r2, 0x80107b0	// 80107b0 <__udivdi3+0xfc>
 80107a8:	ea0d0001 	movi      	r13, 1
 80107ac:	c44d802d 	divu      	r13, r13, r2
 80107b0:	eb0dffff 	cmphsi      	r13, 65536
 80107b4:	0c55      	bf      	0x801085e	// 801085e <__udivdi3+0x1aa>
 80107b6:	c6e05023 	bmaski      	r3, 24
 80107ba:	674c      	cmphs      	r3, r13
 80107bc:	3518      	movi      	r5, 24
 80107be:	3310      	movi      	r3, 16
 80107c0:	c4a30c40 	inct      	r5, r3, 0
 80107c4:	0357      	lrw      	r2, 0x8018824	// 80109e4 <__udivdi3+0x330>
 80107c6:	c4ad4043 	lsr      	r3, r13, r5
 80107ca:	d0620023 	ldr.b      	r3, (r2, r3 << 0)
 80107ce:	614c      	addu      	r5, r3
 80107d0:	3620      	movi      	r6, 32
 80107d2:	6196      	subu      	r6, r5
 80107d4:	e926009f 	bnez      	r6, 0x8010912	// 8010912 <__udivdi3+0x25e>
 80107d8:	c5a10082 	subu      	r2, r1, r13
 80107dc:	c60d4846 	lsri      	r6, r13, 16
 80107e0:	c40d55e5 	zext      	r5, r13, 15, 0
 80107e4:	3101      	movi      	r1, 1
 80107e6:	c4c2802c 	divu      	r12, r2, r6
 80107ea:	c4cc8423 	mult      	r3, r12, r6
 80107ee:	608e      	subu      	r2, r3
 80107f0:	4250      	lsli      	r2, r2, 16
 80107f2:	4c70      	lsri      	r3, r4, 16
 80107f4:	c4ac8420 	mult      	r0, r12, r5
 80107f8:	6cc8      	or      	r3, r2
 80107fa:	640c      	cmphs      	r3, r0
 80107fc:	0809      	bt      	0x801080e	// 801080e <__udivdi3+0x15a>
 80107fe:	60f4      	addu      	r3, r13
 8010800:	674c      	cmphs      	r3, r13
 8010802:	e44c1000 	subi      	r2, r12, 1
 8010806:	0c03      	bf      	0x801080c	// 801080c <__udivdi3+0x158>
 8010808:	640c      	cmphs      	r3, r0
 801080a:	0ce5      	bf      	0x80109d4	// 80109d4 <__udivdi3+0x320>
 801080c:	6f0b      	mov      	r12, r2
 801080e:	60c2      	subu      	r3, r0
 8010810:	c4c38020 	divu      	r0, r3, r6
 8010814:	7d80      	mult      	r6, r0
 8010816:	60da      	subu      	r3, r6
 8010818:	4370      	lsli      	r3, r3, 16
 801081a:	c40455e4 	zext      	r4, r4, 15, 0
 801081e:	7d40      	mult      	r5, r0
 8010820:	6cd0      	or      	r3, r4
 8010822:	654c      	cmphs      	r3, r5
 8010824:	6c83      	mov      	r2, r0
 8010826:	0808      	bt      	0x8010836	// 8010836 <__udivdi3+0x182>
 8010828:	60f4      	addu      	r3, r13
 801082a:	674c      	cmphs      	r3, r13
 801082c:	2800      	subi      	r0, 1
 801082e:	0cb3      	bf      	0x8010994	// 8010994 <__udivdi3+0x2e0>
 8010830:	654c      	cmphs      	r3, r5
 8010832:	08b1      	bt      	0x8010994	// 8010994 <__udivdi3+0x2e0>
 8010834:	2a01      	subi      	r2, 2
 8010836:	c60c4820 	lsli      	r0, r12, 16
 801083a:	6c08      	or      	r0, r2
 801083c:	1485      	pop      	r4-r8
 801083e:	3100      	movi      	r1, 0
 8010840:	6c07      	mov      	r0, r1
 8010842:	1485      	pop      	r4-r8
 8010844:	eb0300ff 	cmphsi      	r3, 256
 8010848:	c400050d 	mvc      	r13
 801084c:	c46d482c 	lsli      	r12, r13, 3
 8010850:	0799      	br      	0x8010782	// 8010782 <__udivdi3+0xce>
 8010852:	eb0200ff 	cmphsi      	r2, 256
 8010856:	3308      	movi      	r3, 8
 8010858:	c4a30c40 	inct      	r5, r3, 0
 801085c:	073f      	br      	0x80106da	// 80106da <__udivdi3+0x26>
 801085e:	eb0d00ff 	cmphsi      	r13, 256
 8010862:	3308      	movi      	r3, 8
 8010864:	c4a30c40 	inct      	r5, r3, 0
 8010868:	07ae      	br      	0x80107c4	// 80107c4 <__udivdi3+0x110>
 801086a:	c5a24046 	lsr      	r6, r2, r13
 801086e:	70d4      	lsl      	r3, r5
 8010870:	6d8c      	or      	r6, r3
 8010872:	c5a14044 	lsr      	r4, r1, r13
 8010876:	4ef0      	lsri      	r7, r6, 16
 8010878:	c4e48023 	divu      	r3, r4, r7
 801087c:	c4a1402c 	lsl      	r12, r1, r5
 8010880:	c5a04041 	lsr      	r1, r0, r13
 8010884:	c4e3842d 	mult      	r13, r3, r7
 8010888:	6c70      	or      	r1, r12
 801088a:	6136      	subu      	r4, r13
 801088c:	c40655ec 	zext      	r12, r6, 15, 0
 8010890:	4490      	lsli      	r4, r4, 16
 8010892:	c601484d 	lsri      	r13, r1, 16
 8010896:	c46c8428 	mult      	r8, r12, r3
 801089a:	6f50      	or      	r13, r4
 801089c:	6634      	cmphs      	r13, r8
 801089e:	7094      	lsl      	r2, r5
 80108a0:	0806      	bt      	0x80108ac	// 80108ac <__udivdi3+0x1f8>
 80108a2:	6358      	addu      	r13, r6
 80108a4:	65b4      	cmphs      	r13, r6
 80108a6:	5b83      	subi      	r4, r3, 1
 80108a8:	088d      	bt      	0x80109c2	// 80109c2 <__udivdi3+0x30e>
 80108aa:	6cd3      	mov      	r3, r4
 80108ac:	6362      	subu      	r13, r8
 80108ae:	c4ed8024 	divu      	r4, r13, r7
 80108b2:	7dd0      	mult      	r7, r4
 80108b4:	635e      	subu      	r13, r7
 80108b6:	c60d482d 	lsli      	r13, r13, 16
 80108ba:	c48c8427 	mult      	r7, r12, r4
 80108be:	c40155ec 	zext      	r12, r1, 15, 0
 80108c2:	6f34      	or      	r12, r13
 80108c4:	65f0      	cmphs      	r12, r7
 80108c6:	0806      	bt      	0x80108d2	// 80108d2 <__udivdi3+0x21e>
 80108c8:	6318      	addu      	r12, r6
 80108ca:	65b0      	cmphs      	r12, r6
 80108cc:	5c23      	subi      	r1, r4, 1
 80108ce:	0875      	bt      	0x80109b8	// 80109b8 <__udivdi3+0x304>
 80108d0:	6d07      	mov      	r4, r1
 80108d2:	4370      	lsli      	r3, r3, 16
 80108d4:	6cd0      	or      	r3, r4
 80108d6:	c40355e1 	zext      	r1, r3, 15, 0
 80108da:	c40255e4 	zext      	r4, r2, 15, 0
 80108de:	c603484d 	lsri      	r13, r3, 16
 80108e2:	4a50      	lsri      	r2, r2, 16
 80108e4:	c4818426 	mult      	r6, r1, r4
 80108e8:	7d34      	mult      	r4, r13
 80108ea:	7c48      	mult      	r1, r2
 80108ec:	7f48      	mult      	r13, r2
 80108ee:	6050      	addu      	r1, r4
 80108f0:	4e50      	lsri      	r2, r6, 16
 80108f2:	6084      	addu      	r2, r1
 80108f4:	6508      	cmphs      	r2, r4
 80108f6:	631e      	subu      	r12, r7
 80108f8:	0804      	bt      	0x8010900	// 8010900 <__udivdi3+0x24c>
 80108fa:	ea210001 	movih      	r1, 1
 80108fe:	6344      	addu      	r13, r1
 8010900:	4a30      	lsri      	r1, r2, 16
 8010902:	6344      	addu      	r13, r1
 8010904:	6770      	cmphs      	r12, r13
 8010906:	0c53      	bf      	0x80109ac	// 80109ac <__udivdi3+0x2f8>
 8010908:	6772      	cmpne      	r12, r13
 801090a:	0c49      	bf      	0x801099c	// 801099c <__udivdi3+0x2e8>
 801090c:	6c0f      	mov      	r0, r3
 801090e:	3100      	movi      	r1, 0
 8010910:	1485      	pop      	r4-r8
 8010912:	7358      	lsl      	r13, r6
 8010914:	c4a1404c 	lsr      	r12, r1, r5
 8010918:	c4c14022 	lsl      	r2, r1, r6
 801091c:	c4c04024 	lsl      	r4, r0, r6
 8010920:	c60d4846 	lsri      	r6, r13, 16
 8010924:	c4a04045 	lsr      	r5, r0, r5
 8010928:	c4cc8020 	divu      	r0, r12, r6
 801092c:	c4c08421 	mult      	r1, r0, r6
 8010930:	c4452423 	or      	r3, r5, r2
 8010934:	6306      	subu      	r12, r1
 8010936:	c40d55e5 	zext      	r5, r13, 15, 0
 801093a:	c60c482c 	lsli      	r12, r12, 16
 801093e:	4b30      	lsri      	r1, r3, 16
 8010940:	c4058422 	mult      	r2, r5, r0
 8010944:	6c70      	or      	r1, r12
 8010946:	6484      	cmphs      	r1, r2
 8010948:	080a      	bt      	0x801095c	// 801095c <__udivdi3+0x2a8>
 801094a:	6074      	addu      	r1, r13
 801094c:	6744      	cmphs      	r1, r13
 801094e:	e5801000 	subi      	r12, r0, 1
 8010952:	0c3f      	bf      	0x80109d0	// 80109d0 <__udivdi3+0x31c>
 8010954:	6484      	cmphs      	r1, r2
 8010956:	083d      	bt      	0x80109d0	// 80109d0 <__udivdi3+0x31c>
 8010958:	2801      	subi      	r0, 2
 801095a:	6074      	addu      	r1, r13
 801095c:	604a      	subu      	r1, r2
 801095e:	c4c1802c 	divu      	r12, r1, r6
 8010962:	c4cc8422 	mult      	r2, r12, r6
 8010966:	5949      	subu      	r2, r1, r2
 8010968:	4250      	lsli      	r2, r2, 16
 801096a:	c40355e3 	zext      	r3, r3, 15, 0
 801096e:	c5858421 	mult      	r1, r5, r12
 8010972:	6c8c      	or      	r2, r3
 8010974:	6448      	cmphs      	r2, r1
 8010976:	080b      	bt      	0x801098c	// 801098c <__udivdi3+0x2d8>
 8010978:	60b4      	addu      	r2, r13
 801097a:	6748      	cmphs      	r2, r13
 801097c:	e46c1000 	subi      	r3, r12, 1
 8010980:	0c26      	bf      	0x80109cc	// 80109cc <__udivdi3+0x318>
 8010982:	6448      	cmphs      	r2, r1
 8010984:	0824      	bt      	0x80109cc	// 80109cc <__udivdi3+0x318>
 8010986:	e58c1001 	subi      	r12, r12, 2
 801098a:	60b4      	addu      	r2, r13
 801098c:	6086      	subu      	r2, r1
 801098e:	4030      	lsli      	r1, r0, 16
 8010990:	6c70      	or      	r1, r12
 8010992:	072a      	br      	0x80107e6	// 80107e6 <__udivdi3+0x132>
 8010994:	6c83      	mov      	r2, r0
 8010996:	0750      	br      	0x8010836	// 8010836 <__udivdi3+0x182>
 8010998:	6c4f      	mov      	r1, r3
 801099a:	06e2      	br      	0x801075e	// 801075e <__udivdi3+0xaa>
 801099c:	4250      	lsli      	r2, r2, 16
 801099e:	c40655e6 	zext      	r6, r6, 15, 0
 80109a2:	c4a04021 	lsl      	r1, r0, r5
 80109a6:	6098      	addu      	r2, r6
 80109a8:	6484      	cmphs      	r1, r2
 80109aa:	0bb1      	bt      	0x801090c	// 801090c <__udivdi3+0x258>
 80109ac:	5b03      	subi      	r0, r3, 1
 80109ae:	3100      	movi      	r1, 0
 80109b0:	1485      	pop      	r4-r8
 80109b2:	6c57      	mov      	r1, r5
 80109b4:	3001      	movi      	r0, 1
 80109b6:	1485      	pop      	r4-r8
 80109b8:	65f0      	cmphs      	r12, r7
 80109ba:	0b8b      	bt      	0x80108d0	// 80108d0 <__udivdi3+0x21c>
 80109bc:	2c01      	subi      	r4, 2
 80109be:	6318      	addu      	r12, r6
 80109c0:	0789      	br      	0x80108d2	// 80108d2 <__udivdi3+0x21e>
 80109c2:	6634      	cmphs      	r13, r8
 80109c4:	0b73      	bt      	0x80108aa	// 80108aa <__udivdi3+0x1f6>
 80109c6:	2b01      	subi      	r3, 2
 80109c8:	6358      	addu      	r13, r6
 80109ca:	0771      	br      	0x80108ac	// 80108ac <__udivdi3+0x1f8>
 80109cc:	6f0f      	mov      	r12, r3
 80109ce:	07df      	br      	0x801098c	// 801098c <__udivdi3+0x2d8>
 80109d0:	6c33      	mov      	r0, r12
 80109d2:	07c5      	br      	0x801095c	// 801095c <__udivdi3+0x2a8>
 80109d4:	e58c1001 	subi      	r12, r12, 2
 80109d8:	60f4      	addu      	r3, r13
 80109da:	071a      	br      	0x801080e	// 801080e <__udivdi3+0x15a>
 80109dc:	2a01      	subi      	r2, 2
 80109de:	6334      	addu      	r12, r13
 80109e0:	06aa      	br      	0x8010734	// 8010734 <__udivdi3+0x80>
 80109e2:	0000      	.short	0x0000
 80109e4:	08018824 	.long	0x08018824

080109e8 <__umoddi3>:
 80109e8:	14c6      	push      	r4-r9
 80109ea:	6d4b      	mov      	r5, r2
 80109ec:	6f4f      	mov      	r13, r3
 80109ee:	6d83      	mov      	r6, r0
 80109f0:	6f07      	mov      	r12, r1
 80109f2:	e923004a 	bnez      	r3, 0x8010a86	// 8010a86 <__umoddi3+0x9e>
 80109f6:	6484      	cmphs      	r1, r2
 80109f8:	086b      	bt      	0x8010ace	// 8010ace <__umoddi3+0xe6>
 80109fa:	eb02ffff 	cmphsi      	r2, 65536
 80109fe:	0cc0      	bf      	0x8010b7e	// 8010b7e <__umoddi3+0x196>
 8010a00:	c6e05023 	bmaski      	r3, 24
 8010a04:	648c      	cmphs      	r3, r2
 8010a06:	ea0d0018 	movi      	r13, 24
 8010a0a:	3310      	movi      	r3, 16
 8010a0c:	c5a30c40 	inct      	r13, r3, 0
 8010a10:	0281      	lrw      	r4, 0x8018824	// 8010d08 <__umoddi3+0x320>
 8010a12:	c5a24043 	lsr      	r3, r2, r13
 8010a16:	d0640023 	ldr.b      	r3, (r4, r3 << 0)
 8010a1a:	634c      	addu      	r13, r3
 8010a1c:	3420      	movi      	r4, 32
 8010a1e:	6136      	subu      	r4, r13
 8010a20:	e904000b 	bez      	r4, 0x8010a36	// 8010a36 <__umoddi3+0x4e>
 8010a24:	7050      	lsl      	r1, r4
 8010a26:	c5a0404d 	lsr      	r13, r0, r13
 8010a2a:	c4824025 	lsl      	r5, r2, r4
 8010a2e:	c42d242c 	or      	r12, r13, r1
 8010a32:	c4804026 	lsl      	r6, r0, r4
 8010a36:	c605484d 	lsri      	r13, r5, 16
 8010a3a:	c5ac8021 	divu      	r1, r12, r13
 8010a3e:	c5a18422 	mult      	r2, r1, r13
 8010a42:	c40555e0 	zext      	r0, r5, 15, 0
 8010a46:	c44c0082 	subu      	r2, r12, r2
 8010a4a:	c4208423 	mult      	r3, r0, r1
 8010a4e:	4250      	lsli      	r2, r2, 16
 8010a50:	4e30      	lsri      	r1, r6, 16
 8010a52:	6c48      	or      	r1, r2
 8010a54:	64c4      	cmphs      	r1, r3
 8010a56:	0808      	bt      	0x8010a66	// 8010a66 <__umoddi3+0x7e>
 8010a58:	6054      	addu      	r1, r5
 8010a5a:	6544      	cmphs      	r1, r5
 8010a5c:	0c05      	bf      	0x8010a66	// 8010a66 <__umoddi3+0x7e>
 8010a5e:	5954      	addu      	r2, r1, r5
 8010a60:	64c4      	cmphs      	r1, r3
 8010a62:	c4220c20 	incf      	r1, r2, 0
 8010a66:	604e      	subu      	r1, r3
 8010a68:	c5a18023 	divu      	r3, r1, r13
 8010a6c:	7f4c      	mult      	r13, r3
 8010a6e:	6076      	subu      	r1, r13
 8010a70:	7c0c      	mult      	r0, r3
 8010a72:	4130      	lsli      	r1, r1, 16
 8010a74:	c40655e3 	zext      	r3, r6, 15, 0
 8010a78:	6cc4      	or      	r3, r1
 8010a7a:	640c      	cmphs      	r3, r0
 8010a7c:	0c69      	bf      	0x8010b4e	// 8010b4e <__umoddi3+0x166>
 8010a7e:	5b01      	subu      	r0, r3, r0
 8010a80:	7011      	lsr      	r0, r4
 8010a82:	3100      	movi      	r1, 0
 8010a84:	1486      	pop      	r4-r9
 8010a86:	64c4      	cmphs      	r1, r3
 8010a88:	0ffe      	bf      	0x8010a84	// 8010a84 <__umoddi3+0x9c>
 8010a8a:	eb03ffff 	cmphsi      	r3, 65536
 8010a8e:	0c6b      	bf      	0x8010b64	// 8010b64 <__umoddi3+0x17c>
 8010a90:	c6e0502d 	bmaski      	r13, 24
 8010a94:	64f4      	cmphs      	r13, r3
 8010a96:	3518      	movi      	r5, 24
 8010a98:	ea0d0010 	movi      	r13, 16
 8010a9c:	c5a50c20 	incf      	r13, r5, 0
 8010aa0:	03a5      	lrw      	r5, 0x8018824	// 8010d08 <__umoddi3+0x320>
 8010aa2:	c5a34044 	lsr      	r4, r3, r13
 8010aa6:	d0850025 	ldr.b      	r5, (r5, r4 << 0)
 8010aaa:	6174      	addu      	r5, r13
 8010aac:	3420      	movi      	r4, 32
 8010aae:	6116      	subu      	r4, r5
 8010ab0:	e924006d 	bnez      	r4, 0x8010b8a	// 8010b8a <__umoddi3+0x1a2>
 8010ab4:	644c      	cmphs      	r3, r1
 8010ab6:	0c03      	bf      	0x8010abc	// 8010abc <__umoddi3+0xd4>
 8010ab8:	6480      	cmphs      	r0, r2
 8010aba:	0d20      	bf      	0x8010cfa	// 8010cfa <__umoddi3+0x312>
 8010abc:	5889      	subu      	r4, r0, r2
 8010abe:	6500      	cmphs      	r0, r4
 8010ac0:	c461008c 	subu      	r12, r1, r3
 8010ac4:	6443      	mvcv      	r1
 8010ac6:	6306      	subu      	r12, r1
 8010ac8:	6c13      	mov      	r0, r4
 8010aca:	6c73      	mov      	r1, r12
 8010acc:	1486      	pop      	r4-r9
 8010ace:	e9220005 	bnez      	r2, 0x8010ad8	// 8010ad8 <__umoddi3+0xf0>
 8010ad2:	3501      	movi      	r5, 1
 8010ad4:	c4458025 	divu      	r5, r5, r2
 8010ad8:	eb05ffff 	cmphsi      	r5, 65536
 8010adc:	0c4b      	bf      	0x8010b72	// 8010b72 <__umoddi3+0x18a>
 8010ade:	c6e05023 	bmaski      	r3, 24
 8010ae2:	654c      	cmphs      	r3, r5
 8010ae4:	ea0d0018 	movi      	r13, 24
 8010ae8:	3310      	movi      	r3, 16
 8010aea:	c5a30c40 	inct      	r13, r3, 0
 8010aee:	0358      	lrw      	r2, 0x8018824	// 8010d08 <__umoddi3+0x320>
 8010af0:	c5a54043 	lsr      	r3, r5, r13
 8010af4:	d0620023 	ldr.b      	r3, (r2, r3 << 0)
 8010af8:	634c      	addu      	r13, r3
 8010afa:	3420      	movi      	r4, 32
 8010afc:	6136      	subu      	r4, r13
 8010afe:	e92400af 	bnez      	r4, 0x8010c5c	// 8010c5c <__umoddi3+0x274>
 8010b02:	c4a1008c 	subu      	r12, r1, r5
 8010b06:	4df0      	lsri      	r7, r5, 16
 8010b08:	c40555e2 	zext      	r2, r5, 15, 0
 8010b0c:	c4ec8021 	divu      	r1, r12, r7
 8010b10:	c4e18423 	mult      	r3, r1, r7
 8010b14:	630e      	subu      	r12, r3
 8010b16:	c60c482c 	lsli      	r12, r12, 16
 8010b1a:	c4418423 	mult      	r3, r1, r2
 8010b1e:	4e30      	lsri      	r1, r6, 16
 8010b20:	6c70      	or      	r1, r12
 8010b22:	64c4      	cmphs      	r1, r3
 8010b24:	0808      	bt      	0x8010b34	// 8010b34 <__umoddi3+0x14c>
 8010b26:	6054      	addu      	r1, r5
 8010b28:	6544      	cmphs      	r1, r5
 8010b2a:	0c05      	bf      	0x8010b34	// 8010b34 <__umoddi3+0x14c>
 8010b2c:	5914      	addu      	r0, r1, r5
 8010b2e:	64c4      	cmphs      	r1, r3
 8010b30:	c4200c20 	incf      	r1, r0, 0
 8010b34:	604e      	subu      	r1, r3
 8010b36:	c4e18020 	divu      	r0, r1, r7
 8010b3a:	7dc0      	mult      	r7, r0
 8010b3c:	605e      	subu      	r1, r7
 8010b3e:	4130      	lsli      	r1, r1, 16
 8010b40:	c40655e6 	zext      	r6, r6, 15, 0
 8010b44:	7c08      	mult      	r0, r2
 8010b46:	c4c12423 	or      	r3, r1, r6
 8010b4a:	640c      	cmphs      	r3, r0
 8010b4c:	0808      	bt      	0x8010b5c	// 8010b5c <__umoddi3+0x174>
 8010b4e:	60d4      	addu      	r3, r5
 8010b50:	654c      	cmphs      	r3, r5
 8010b52:	0c05      	bf      	0x8010b5c	// 8010b5c <__umoddi3+0x174>
 8010b54:	614c      	addu      	r5, r3
 8010b56:	640c      	cmphs      	r3, r0
 8010b58:	c4650c20 	incf      	r3, r5, 0
 8010b5c:	5b01      	subu      	r0, r3, r0
 8010b5e:	7011      	lsr      	r0, r4
 8010b60:	3100      	movi      	r1, 0
 8010b62:	1486      	pop      	r4-r9
 8010b64:	eb0300ff 	cmphsi      	r3, 256
 8010b68:	c4000505 	mvc      	r5
 8010b6c:	c465482d 	lsli      	r13, r5, 3
 8010b70:	0798      	br      	0x8010aa0	// 8010aa0 <__umoddi3+0xb8>
 8010b72:	eb0500ff 	cmphsi      	r5, 256
 8010b76:	3308      	movi      	r3, 8
 8010b78:	c5a30c40 	inct      	r13, r3, 0
 8010b7c:	07b9      	br      	0x8010aee	// 8010aee <__umoddi3+0x106>
 8010b7e:	eb0200ff 	cmphsi      	r2, 256
 8010b82:	3308      	movi      	r3, 8
 8010b84:	c5a30c40 	inct      	r13, r3, 0
 8010b88:	0744      	br      	0x8010a10	// 8010a10 <__umoddi3+0x28>
 8010b8a:	70d0      	lsl      	r3, r4
 8010b8c:	c4a24047 	lsr      	r7, r2, r5
 8010b90:	6dcc      	or      	r7, r3
 8010b92:	c4a14046 	lsr      	r6, r1, r5
 8010b96:	c481402c 	lsl      	r12, r1, r4
 8010b9a:	c4a04041 	lsr      	r1, r0, r5
 8010b9e:	6c70      	or      	r1, r12
 8010ba0:	c607484c 	lsri      	r12, r7, 16
 8010ba4:	c5868028 	divu      	r8, r6, r12
 8010ba8:	c4824023 	lsl      	r3, r2, r4
 8010bac:	c5888422 	mult      	r2, r8, r12
 8010bb0:	618a      	subu      	r6, r2
 8010bb2:	c40755ed 	zext      	r13, r7, 15, 0
 8010bb6:	46d0      	lsli      	r6, r6, 16
 8010bb8:	4950      	lsri      	r2, r1, 16
 8010bba:	c50d8429 	mult      	r9, r13, r8
 8010bbe:	6c98      	or      	r2, r6
 8010bc0:	6648      	cmphs      	r2, r9
 8010bc2:	7010      	lsl      	r0, r4
 8010bc4:	0807      	bt      	0x8010bd2	// 8010bd2 <__umoddi3+0x1ea>
 8010bc6:	609c      	addu      	r2, r7
 8010bc8:	65c8      	cmphs      	r2, r7
 8010bca:	e4c81000 	subi      	r6, r8, 1
 8010bce:	088a      	bt      	0x8010ce2	// 8010ce2 <__umoddi3+0x2fa>
 8010bd0:	6e1b      	mov      	r8, r6
 8010bd2:	60a6      	subu      	r2, r9
 8010bd4:	c5828026 	divu      	r6, r2, r12
 8010bd8:	7f18      	mult      	r12, r6
 8010bda:	60b2      	subu      	r2, r12
 8010bdc:	4250      	lsli      	r2, r2, 16
 8010bde:	c40155e1 	zext      	r1, r1, 15, 0
 8010be2:	7f58      	mult      	r13, r6
 8010be4:	6c48      	or      	r1, r2
 8010be6:	6744      	cmphs      	r1, r13
 8010be8:	0806      	bt      	0x8010bf4	// 8010bf4 <__umoddi3+0x20c>
 8010bea:	605c      	addu      	r1, r7
 8010bec:	65c4      	cmphs      	r1, r7
 8010bee:	5e43      	subi      	r2, r6, 1
 8010bf0:	0874      	bt      	0x8010cd8	// 8010cd8 <__umoddi3+0x2f0>
 8010bf2:	6d8b      	mov      	r6, r2
 8010bf4:	c6084822 	lsli      	r2, r8, 16
 8010bf8:	6c98      	or      	r2, r6
 8010bfa:	c40255e8 	zext      	r8, r2, 15, 0
 8010bfe:	c603484c 	lsri      	r12, r3, 16
 8010c02:	4a50      	lsri      	r2, r2, 16
 8010c04:	c5a1008d 	subu      	r13, r1, r13
 8010c08:	c40355e1 	zext      	r1, r3, 15, 0
 8010c0c:	c4288426 	mult      	r6, r8, r1
 8010c10:	7c48      	mult      	r1, r2
 8010c12:	7e30      	mult      	r8, r12
 8010c14:	7cb0      	mult      	r2, r12
 8010c16:	6204      	addu      	r8, r1
 8010c18:	c606484c 	lsri      	r12, r6, 16
 8010c1c:	6320      	addu      	r12, r8
 8010c1e:	6470      	cmphs      	r12, r1
 8010c20:	0804      	bt      	0x8010c28	// 8010c28 <__umoddi3+0x240>
 8010c22:	ea210001 	movih      	r1, 1
 8010c26:	6084      	addu      	r2, r1
 8010c28:	c60c4841 	lsri      	r1, r12, 16
 8010c2c:	6048      	addu      	r1, r2
 8010c2e:	6474      	cmphs      	r13, r1
 8010c30:	c60c482c 	lsli      	r12, r12, 16
 8010c34:	c40655e6 	zext      	r6, r6, 15, 0
 8010c38:	6318      	addu      	r12, r6
 8010c3a:	0c46      	bf      	0x8010cc6	// 8010cc6 <__umoddi3+0x2de>
 8010c3c:	6476      	cmpne      	r13, r1
 8010c3e:	0c60      	bf      	0x8010cfe	// 8010cfe <__umoddi3+0x316>
 8010c40:	c42d0081 	subu      	r1, r13, r1
 8010c44:	6cf3      	mov      	r3, r12
 8010c46:	586d      	subu      	r3, r0, r3
 8010c48:	64c0      	cmphs      	r0, r3
 8010c4a:	6743      	mvcv      	r13
 8010c4c:	6076      	subu      	r1, r13
 8010c4e:	c4a14025 	lsl      	r5, r1, r5
 8010c52:	c4834040 	lsr      	r0, r3, r4
 8010c56:	6c14      	or      	r0, r5
 8010c58:	7051      	lsr      	r1, r4
 8010c5a:	1486      	pop      	r4-r9
 8010c5c:	7150      	lsl      	r5, r4
 8010c5e:	c5a14048 	lsr      	r8, r1, r13
 8010c62:	4df0      	lsri      	r7, r5, 16
 8010c64:	c5a0404d 	lsr      	r13, r0, r13
 8010c68:	7050      	lsl      	r1, r4
 8010c6a:	6c74      	or      	r1, r13
 8010c6c:	c4e8802d 	divu      	r13, r8, r7
 8010c70:	c4ed8423 	mult      	r3, r13, r7
 8010c74:	c40555e2 	zext      	r2, r5, 15, 0
 8010c78:	620e      	subu      	r8, r3
 8010c7a:	c5a2842c 	mult      	r12, r2, r13
 8010c7e:	c6084828 	lsli      	r8, r8, 16
 8010c82:	c601484d 	lsri      	r13, r1, 16
 8010c86:	6f60      	or      	r13, r8
 8010c88:	6734      	cmphs      	r13, r12
 8010c8a:	c4804026 	lsl      	r6, r0, r4
 8010c8e:	0804      	bt      	0x8010c96	// 8010c96 <__umoddi3+0x2ae>
 8010c90:	6354      	addu      	r13, r5
 8010c92:	6574      	cmphs      	r13, r5
 8010c94:	082d      	bt      	0x8010cee	// 8010cee <__umoddi3+0x306>
 8010c96:	6372      	subu      	r13, r12
 8010c98:	c4ed8023 	divu      	r3, r13, r7
 8010c9c:	c4e3842c 	mult      	r12, r3, r7
 8010ca0:	6372      	subu      	r13, r12
 8010ca2:	c60d482c 	lsli      	r12, r13, 16
 8010ca6:	c40155e1 	zext      	r1, r1, 15, 0
 8010caa:	7cc8      	mult      	r3, r2
 8010cac:	6f04      	or      	r12, r1
 8010cae:	64f0      	cmphs      	r12, r3
 8010cb0:	0809      	bt      	0x8010cc2	// 8010cc2 <__umoddi3+0x2da>
 8010cb2:	6314      	addu      	r12, r5
 8010cb4:	6570      	cmphs      	r12, r5
 8010cb6:	0c06      	bf      	0x8010cc2	// 8010cc2 <__umoddi3+0x2da>
 8010cb8:	c4ac0021 	addu      	r1, r12, r5
 8010cbc:	64f0      	cmphs      	r12, r3
 8010cbe:	c5810c20 	incf      	r12, r1, 0
 8010cc2:	630e      	subu      	r12, r3
 8010cc4:	0724      	br      	0x8010b0c	// 8010b0c <__umoddi3+0x124>
 8010cc6:	c46c0083 	subu      	r3, r12, r3
 8010cca:	64f0      	cmphs      	r12, r3
 8010ccc:	605e      	subu      	r1, r7
 8010cce:	65c3      	mvcv      	r7
 8010cd0:	605e      	subu      	r1, r7
 8010cd2:	c42d0081 	subu      	r1, r13, r1
 8010cd6:	07b8      	br      	0x8010c46	// 8010c46 <__umoddi3+0x25e>
 8010cd8:	6744      	cmphs      	r1, r13
 8010cda:	0b8c      	bt      	0x8010bf2	// 8010bf2 <__umoddi3+0x20a>
 8010cdc:	2e01      	subi      	r6, 2
 8010cde:	605c      	addu      	r1, r7
 8010ce0:	078a      	br      	0x8010bf4	// 8010bf4 <__umoddi3+0x20c>
 8010ce2:	6648      	cmphs      	r2, r9
 8010ce4:	0b76      	bt      	0x8010bd0	// 8010bd0 <__umoddi3+0x1e8>
 8010ce6:	e5081001 	subi      	r8, r8, 2
 8010cea:	609c      	addu      	r2, r7
 8010cec:	0773      	br      	0x8010bd2	// 8010bd2 <__umoddi3+0x1ea>
 8010cee:	c4ad0023 	addu      	r3, r13, r5
 8010cf2:	6734      	cmphs      	r13, r12
 8010cf4:	c5a30c20 	incf      	r13, r3, 0
 8010cf8:	07cf      	br      	0x8010c96	// 8010c96 <__umoddi3+0x2ae>
 8010cfa:	6d03      	mov      	r4, r0
 8010cfc:	06e6      	br      	0x8010ac8	// 8010ac8 <__umoddi3+0xe0>
 8010cfe:	6700      	cmphs      	r0, r12
 8010d00:	0fe3      	bf      	0x8010cc6	// 8010cc6 <__umoddi3+0x2de>
 8010d02:	6cf3      	mov      	r3, r12
 8010d04:	3100      	movi      	r1, 0
 8010d06:	07a0      	br      	0x8010c46	// 8010c46 <__umoddi3+0x25e>
 8010d08:	08018824 	.long	0x08018824

08010d0c <__extendsfdf2>:
 8010d0c:	14d0      	push      	r15
 8010d0e:	1426      	subi      	r14, r14, 24
 8010d10:	1902      	addi      	r1, r14, 8
 8010d12:	1801      	addi      	r0, r14, 4
 8010d14:	f40e2410 	fsts      	fr0, (r14, 0x4)
 8010d18:	e000049c 	bsr      	0x8011650	// 8011650 <__unpack_f>
 8010d1c:	9865      	ld.w      	r3, (r14, 0x14)
 8010d1e:	9824      	ld.w      	r1, (r14, 0x10)
 8010d20:	6f07      	mov      	r12, r1
 8010d22:	4b42      	lsri      	r2, r3, 2
 8010d24:	b840      	st.w      	r2, (r14, 0x0)
 8010d26:	9823      	ld.w      	r1, (r14, 0xc)
 8010d28:	437e      	lsli      	r3, r3, 30
 8010d2a:	6cb3      	mov      	r2, r12
 8010d2c:	9802      	ld.w      	r0, (r14, 0x8)
 8010d2e:	e000040d 	bsr      	0x8011548	// 8011548 <__make_dp>
 8010d32:	1406      	addi      	r14, r14, 24
 8010d34:	1490      	pop      	r15
	...

08010d38 <_fpadd_parts>:
 8010d38:	14c8      	push      	r4-r11
 8010d3a:	1423      	subi      	r14, r14, 12
 8010d3c:	9060      	ld.w      	r3, (r0, 0x0)
 8010d3e:	3501      	movi      	r5, 1
 8010d40:	64d4      	cmphs      	r5, r3
 8010d42:	0871      	bt      	0x8010e24	// 8010e24 <_fpadd_parts+0xec>
 8010d44:	d9812000 	ld.w      	r12, (r1, 0x0)
 8010d48:	6714      	cmphs      	r5, r12
 8010d4a:	086f      	bt      	0x8010e28	// 8010e28 <_fpadd_parts+0xf0>
 8010d4c:	3b44      	cmpnei      	r3, 4
 8010d4e:	0cef      	bf      	0x8010f2c	// 8010f2c <_fpadd_parts+0x1f4>
 8010d50:	eb4c0004 	cmpnei      	r12, 4
 8010d54:	0c6a      	bf      	0x8010e28	// 8010e28 <_fpadd_parts+0xf0>
 8010d56:	eb4c0002 	cmpnei      	r12, 2
 8010d5a:	0cc7      	bf      	0x8010ee8	// 8010ee8 <_fpadd_parts+0x1b0>
 8010d5c:	3b42      	cmpnei      	r3, 2
 8010d5e:	0c65      	bf      	0x8010e28	// 8010e28 <_fpadd_parts+0xf0>
 8010d60:	9062      	ld.w      	r3, (r0, 0x8)
 8010d62:	d9812002 	ld.w      	r12, (r1, 0x8)
 8010d66:	c583008d 	subu      	r13, r3, r12
 8010d6a:	c40d0208 	abs      	r8, r13
 8010d6e:	eb28003f 	cmplti      	r8, 64
 8010d72:	90c3      	ld.w      	r6, (r0, 0xc)
 8010d74:	90e4      	ld.w      	r7, (r0, 0x10)
 8010d76:	b8c0      	st.w      	r6, (r14, 0x0)
 8010d78:	b8e1      	st.w      	r7, (r14, 0x4)
 8010d7a:	d9412003 	ld.w      	r10, (r1, 0xc)
 8010d7e:	d9612004 	ld.w      	r11, (r1, 0x10)
 8010d82:	0856      	bt      	0x8010e2e	// 8010e2e <_fpadd_parts+0xf6>
 8010d84:	64f1      	cmplt      	r12, r3
 8010d86:	0cc9      	bf      	0x8010f18	// 8010f18 <_fpadd_parts+0x1e0>
 8010d88:	ea0a0000 	movi      	r10, 0
 8010d8c:	ea0b0000 	movi      	r11, 0
 8010d90:	9001      	ld.w      	r0, (r0, 0x4)
 8010d92:	9121      	ld.w      	r1, (r1, 0x4)
 8010d94:	6442      	cmpne      	r0, r1
 8010d96:	0c82      	bf      	0x8010e9a	// 8010e9a <_fpadd_parts+0x162>
 8010d98:	d98e2000 	ld.w      	r12, (r14, 0x0)
 8010d9c:	d9ae2001 	ld.w      	r13, (r14, 0x4)
 8010da0:	e90000b8 	bez      	r0, 0x8010f10	// 8010f10 <_fpadd_parts+0x1d8>
 8010da4:	6730      	cmphs      	r12, r12
 8010da6:	c58a010c 	subc      	r12, r10, r12
 8010daa:	c5ab010d 	subc      	r13, r11, r13
 8010dae:	e98d00c9 	blz      	r13, 0x8010f40	// 8010f40 <_fpadd_parts+0x208>
 8010db2:	3100      	movi      	r1, 0
 8010db4:	b221      	st.w      	r1, (r2, 0x4)
 8010db6:	b262      	st.w      	r3, (r2, 0x8)
 8010db8:	dd822003 	st.w      	r12, (r2, 0xc)
 8010dbc:	dda22004 	st.w      	r13, (r2, 0x10)
 8010dc0:	6c33      	mov      	r0, r12
 8010dc2:	6c77      	mov      	r1, r13
 8010dc4:	3840      	cmpnei      	r0, 0
 8010dc6:	c4210c81 	decf      	r1, r1, 1
 8010dca:	2800      	subi      	r0, 1
 8010dcc:	c7605023 	bmaski      	r3, 28
 8010dd0:	644c      	cmphs      	r3, r1
 8010dd2:	0c71      	bf      	0x8010eb4	// 8010eb4 <_fpadd_parts+0x17c>
 8010dd4:	64c6      	cmpne      	r1, r3
 8010dd6:	0d0d      	bf      	0x8010ff0	// 8010ff0 <_fpadd_parts+0x2b8>
 8010dd8:	9262      	ld.w      	r3, (r2, 0x8)
 8010dda:	3600      	movi      	r6, 0
 8010ddc:	3700      	movi      	r7, 0
 8010dde:	ea0a0000 	movi      	r10, 0
 8010de2:	2b00      	subi      	r3, 1
 8010de4:	2e00      	subi      	r6, 1
 8010de6:	2f00      	subi      	r7, 1
 8010de8:	c7605028 	bmaski      	r8, 28
 8010dec:	e54a1001 	subi      	r10, r10, 2
 8010df0:	0403      	br      	0x8010df6	// 8010df6 <_fpadd_parts+0xbe>
 8010df2:	6606      	cmpne      	r1, r8
 8010df4:	0c8b      	bf      	0x8010f0a	// 8010f0a <_fpadd_parts+0x1d2>
 8010df6:	6511      	cmplt      	r4, r4
 8010df8:	c58c0044 	addc      	r4, r12, r12
 8010dfc:	c5ad0045 	addc      	r5, r13, r13
 8010e00:	6401      	cmplt      	r0, r0
 8010e02:	c4c40040 	addc      	r0, r4, r6
 8010e06:	c4e50041 	addc      	r1, r5, r7
 8010e0a:	6460      	cmphs      	r8, r1
 8010e0c:	6e4f      	mov      	r9, r3
 8010e0e:	6f13      	mov      	r12, r4
 8010e10:	6f57      	mov      	r13, r5
 8010e12:	2b00      	subi      	r3, 1
 8010e14:	0bef      	bt      	0x8010df2	// 8010df2 <_fpadd_parts+0xba>
 8010e16:	3303      	movi      	r3, 3
 8010e18:	b283      	st.w      	r4, (r2, 0xc)
 8010e1a:	b2a4      	st.w      	r5, (r2, 0x10)
 8010e1c:	dd222002 	st.w      	r9, (r2, 0x8)
 8010e20:	b260      	st.w      	r3, (r2, 0x0)
 8010e22:	6c0b      	mov      	r0, r2
 8010e24:	1403      	addi      	r14, r14, 12
 8010e26:	1488      	pop      	r4-r11
 8010e28:	6c07      	mov      	r0, r1
 8010e2a:	1403      	addi      	r14, r14, 12
 8010e2c:	1488      	pop      	r4-r11
 8010e2e:	e96d009a 	blsz      	r13, 0x8010f62	// 8010f62 <_fpadd_parts+0x22a>
 8010e32:	ea0d001f 	movi      	r13, 31
 8010e36:	c42b4826 	lsli      	r6, r11, 1
 8010e3a:	6362      	subu      	r13, r8
 8010e3c:	e588101f 	subi      	r12, r8, 32
 8010e40:	c5a6402d 	lsl      	r13, r6, r13
 8010e44:	c50a4046 	lsr      	r6, r10, r8
 8010e48:	c7ec2880 	btsti      	r12, 31
 8010e4c:	c58b4049 	lsr      	r9, r11, r12
 8010e50:	3400      	movi      	r4, 0
 8010e52:	6db4      	or      	r6, r13
 8010e54:	c4c90c20 	incf      	r6, r9, 0
 8010e58:	6f53      	mov      	r13, r4
 8010e5a:	c5854029 	lsl      	r9, r5, r12
 8010e5e:	c505402c 	lsl      	r12, r5, r8
 8010e62:	c50b4047 	lsr      	r7, r11, r8
 8010e66:	c5a90c20 	incf      	r13, r9, 0
 8010e6a:	c5840c20 	incf      	r12, r4, 0
 8010e6e:	c4e40c20 	incf      	r7, r4, 0
 8010e72:	eb4c0000 	cmpnei      	r12, 0
 8010e76:	c5ad0c81 	decf      	r13, r13, 1
 8010e7a:	e58c1000 	subi      	r12, r12, 1
 8010e7e:	6b28      	and      	r12, r10
 8010e80:	6b6c      	and      	r13, r11
 8010e82:	6f34      	or      	r12, r13
 8010e84:	eb4c0000 	cmpnei      	r12, 0
 8010e88:	9001      	ld.w      	r0, (r0, 0x4)
 8010e8a:	9121      	ld.w      	r1, (r1, 0x4)
 8010e8c:	c400050a 	mvc      	r10
 8010e90:	6442      	cmpne      	r0, r1
 8010e92:	6ed3      	mov      	r11, r4
 8010e94:	6e98      	or      	r10, r6
 8010e96:	6edc      	or      	r11, r7
 8010e98:	0b80      	bt      	0x8010d98	// 8010d98 <_fpadd_parts+0x60>
 8010e9a:	d98e2000 	ld.w      	r12, (r14, 0x0)
 8010e9e:	d9ae2001 	ld.w      	r13, (r14, 0x4)
 8010ea2:	6731      	cmplt      	r12, r12
 8010ea4:	6329      	addc      	r12, r10
 8010ea6:	636d      	addc      	r13, r11
 8010ea8:	b201      	st.w      	r0, (r2, 0x4)
 8010eaa:	b262      	st.w      	r3, (r2, 0x8)
 8010eac:	dd822003 	st.w      	r12, (r2, 0xc)
 8010eb0:	dda22004 	st.w      	r13, (r2, 0x10)
 8010eb4:	3303      	movi      	r3, 3
 8010eb6:	b260      	st.w      	r3, (r2, 0x0)
 8010eb8:	c7805023 	bmaski      	r3, 29
 8010ebc:	674c      	cmphs      	r3, r13
 8010ebe:	0812      	bt      	0x8010ee2	// 8010ee2 <_fpadd_parts+0x1aa>
 8010ec0:	c7ed4823 	lsli      	r3, r13, 31
 8010ec4:	c42c4840 	lsri      	r0, r12, 1
 8010ec8:	6c0c      	or      	r0, r3
 8010eca:	c42d4841 	lsri      	r1, r13, 1
 8010ece:	9262      	ld.w      	r3, (r2, 0x8)
 8010ed0:	e48c2001 	andi      	r4, r12, 1
 8010ed4:	3500      	movi      	r5, 0
 8010ed6:	6c10      	or      	r0, r4
 8010ed8:	6c54      	or      	r1, r5
 8010eda:	2300      	addi      	r3, 1
 8010edc:	b203      	st.w      	r0, (r2, 0xc)
 8010ede:	b224      	st.w      	r1, (r2, 0x10)
 8010ee0:	b262      	st.w      	r3, (r2, 0x8)
 8010ee2:	6c0b      	mov      	r0, r2
 8010ee4:	1403      	addi      	r14, r14, 12
 8010ee6:	1488      	pop      	r4-r11
 8010ee8:	3b42      	cmpnei      	r3, 2
 8010eea:	0b9d      	bt      	0x8010e24	// 8010e24 <_fpadd_parts+0xec>
 8010eec:	b260      	st.w      	r3, (r2, 0x0)
 8010eee:	9061      	ld.w      	r3, (r0, 0x4)
 8010ef0:	b261      	st.w      	r3, (r2, 0x4)
 8010ef2:	9062      	ld.w      	r3, (r0, 0x8)
 8010ef4:	b262      	st.w      	r3, (r2, 0x8)
 8010ef6:	9063      	ld.w      	r3, (r0, 0xc)
 8010ef8:	b263      	st.w      	r3, (r2, 0xc)
 8010efa:	9064      	ld.w      	r3, (r0, 0x10)
 8010efc:	9121      	ld.w      	r1, (r1, 0x4)
 8010efe:	b264      	st.w      	r3, (r2, 0x10)
 8010f00:	9061      	ld.w      	r3, (r0, 0x4)
 8010f02:	68c4      	and      	r3, r1
 8010f04:	b261      	st.w      	r3, (r2, 0x4)
 8010f06:	6c0b      	mov      	r0, r2
 8010f08:	078e      	br      	0x8010e24	// 8010e24 <_fpadd_parts+0xec>
 8010f0a:	6428      	cmphs      	r10, r0
 8010f0c:	0b75      	bt      	0x8010df6	// 8010df6 <_fpadd_parts+0xbe>
 8010f0e:	0784      	br      	0x8010e16	// 8010e16 <_fpadd_parts+0xde>
 8010f10:	6730      	cmphs      	r12, r12
 8010f12:	632b      	subc      	r12, r10
 8010f14:	636f      	subc      	r13, r11
 8010f16:	074c      	br      	0x8010dae	// 8010dae <_fpadd_parts+0x76>
 8010f18:	6cf3      	mov      	r3, r12
 8010f1a:	ea0d0000 	movi      	r13, 0
 8010f1e:	ea0c0000 	movi      	r12, 0
 8010f22:	dd8e2000 	st.w      	r12, (r14, 0x0)
 8010f26:	ddae2001 	st.w      	r13, (r14, 0x4)
 8010f2a:	0733      	br      	0x8010d90	// 8010d90 <_fpadd_parts+0x58>
 8010f2c:	eb4c0004 	cmpnei      	r12, 4
 8010f30:	0b7a      	bt      	0x8010e24	// 8010e24 <_fpadd_parts+0xec>
 8010f32:	9041      	ld.w      	r2, (r0, 0x4)
 8010f34:	9161      	ld.w      	r3, (r1, 0x4)
 8010f36:	64ca      	cmpne      	r2, r3
 8010f38:	124b      	lrw      	r2, 0x8018810	// 8011064 <__subdf3+0x38>
 8010f3a:	c4020c40 	inct      	r0, r2, 0
 8010f3e:	0773      	br      	0x8010e24	// 8010e24 <_fpadd_parts+0xec>
 8010f40:	ea0a0000 	movi      	r10, 0
 8010f44:	ea0b0000 	movi      	r11, 0
 8010f48:	3101      	movi      	r1, 1
 8010f4a:	6730      	cmphs      	r12, r12
 8010f4c:	c58a010c 	subc      	r12, r10, r12
 8010f50:	c5ab010d 	subc      	r13, r11, r13
 8010f54:	b221      	st.w      	r1, (r2, 0x4)
 8010f56:	b262      	st.w      	r3, (r2, 0x8)
 8010f58:	dd822003 	st.w      	r12, (r2, 0xc)
 8010f5c:	dda22004 	st.w      	r13, (r2, 0x10)
 8010f60:	0730      	br      	0x8010dc0	// 8010dc0 <_fpadd_parts+0x88>
 8010f62:	e90dff17 	bez      	r13, 0x8010d90	// 8010d90 <_fpadd_parts+0x58>
 8010f66:	98c0      	ld.w      	r6, (r14, 0x0)
 8010f68:	98e1      	ld.w      	r7, (r14, 0x4)
 8010f6a:	ea0d001f 	movi      	r13, 31
 8010f6e:	47c1      	lsli      	r6, r7, 1
 8010f70:	6362      	subu      	r13, r8
 8010f72:	c5a6402d 	lsl      	r13, r6, r13
 8010f76:	ddae2002 	st.w      	r13, (r14, 0x8)
 8010f7a:	d9ae2000 	ld.w      	r13, (r14, 0x0)
 8010f7e:	e588101f 	subi      	r12, r8, 32
 8010f82:	c50d4046 	lsr      	r6, r13, r8
 8010f86:	d9ae2002 	ld.w      	r13, (r14, 0x8)
 8010f8a:	c7ec2880 	btsti      	r12, 31
 8010f8e:	3400      	movi      	r4, 0
 8010f90:	c5874049 	lsr      	r9, r7, r12
 8010f94:	6db4      	or      	r6, r13
 8010f96:	d9ae2001 	ld.w      	r13, (r14, 0x4)
 8010f9a:	c4c90c20 	incf      	r6, r9, 0
 8010f9e:	c50d4047 	lsr      	r7, r13, r8
 8010fa2:	c5854029 	lsl      	r9, r5, r12
 8010fa6:	6f53      	mov      	r13, r4
 8010fa8:	c505402c 	lsl      	r12, r5, r8
 8010fac:	c5a90c20 	incf      	r13, r9, 0
 8010fb0:	c5840c20 	incf      	r12, r4, 0
 8010fb4:	c4e40c20 	incf      	r7, r4, 0
 8010fb8:	60e0      	addu      	r3, r8
 8010fba:	eb4c0000 	cmpnei      	r12, 0
 8010fbe:	c5ad0c81 	decf      	r13, r13, 1
 8010fc2:	e58c1000 	subi      	r12, r12, 1
 8010fc6:	d90e2000 	ld.w      	r8, (r14, 0x0)
 8010fca:	d92e2001 	ld.w      	r9, (r14, 0x4)
 8010fce:	6a30      	and      	r8, r12
 8010fd0:	6a74      	and      	r9, r13
 8010fd2:	6f23      	mov      	r12, r8
 8010fd4:	6f67      	mov      	r13, r9
 8010fd6:	6f34      	or      	r12, r13
 8010fd8:	eb4c0000 	cmpnei      	r12, 0
 8010fdc:	c400050c 	mvc      	r12
 8010fe0:	6f53      	mov      	r13, r4
 8010fe2:	c5862424 	or      	r4, r6, r12
 8010fe6:	c5a72425 	or      	r5, r7, r13
 8010fea:	b880      	st.w      	r4, (r14, 0x0)
 8010fec:	b8a1      	st.w      	r5, (r14, 0x4)
 8010fee:	06d1      	br      	0x8010d90	// 8010d90 <_fpadd_parts+0x58>
 8010ff0:	3300      	movi      	r3, 0
 8010ff2:	2b01      	subi      	r3, 2
 8010ff4:	640c      	cmphs      	r3, r0
 8010ff6:	0af1      	bt      	0x8010dd8	// 8010dd8 <_fpadd_parts+0xa0>
 8010ff8:	075e      	br      	0x8010eb4	// 8010eb4 <_fpadd_parts+0x17c>
	...

08010ffc <__adddf3>:
 8010ffc:	14d2      	push      	r4-r5, r15
 8010ffe:	1433      	subi      	r14, r14, 76
 8011000:	b800      	st.w      	r0, (r14, 0x0)
 8011002:	b821      	st.w      	r1, (r14, 0x4)
 8011004:	6c3b      	mov      	r0, r14
 8011006:	6d47      	mov      	r5, r1
 8011008:	1904      	addi      	r1, r14, 16
 801100a:	b863      	st.w      	r3, (r14, 0xc)
 801100c:	b842      	st.w      	r2, (r14, 0x8)
 801100e:	e0000433 	bsr      	0x8011874	// 8011874 <__unpack_d>
 8011012:	1909      	addi      	r1, r14, 36
 8011014:	1802      	addi      	r0, r14, 8
 8011016:	e000042f 	bsr      	0x8011874	// 8011874 <__unpack_d>
 801101a:	1a0e      	addi      	r2, r14, 56
 801101c:	1909      	addi      	r1, r14, 36
 801101e:	1804      	addi      	r0, r14, 16
 8011020:	e3fffe8c 	bsr      	0x8010d38	// 8010d38 <_fpadd_parts>
 8011024:	e0000360 	bsr      	0x80116e4	// 80116e4 <__pack_d>
 8011028:	1413      	addi      	r14, r14, 76
 801102a:	1492      	pop      	r4-r5, r15

0801102c <__subdf3>:
 801102c:	14d2      	push      	r4-r5, r15
 801102e:	1433      	subi      	r14, r14, 76
 8011030:	b800      	st.w      	r0, (r14, 0x0)
 8011032:	b821      	st.w      	r1, (r14, 0x4)
 8011034:	6c3b      	mov      	r0, r14
 8011036:	6d47      	mov      	r5, r1
 8011038:	1904      	addi      	r1, r14, 16
 801103a:	b842      	st.w      	r2, (r14, 0x8)
 801103c:	b863      	st.w      	r3, (r14, 0xc)
 801103e:	e000041b 	bsr      	0x8011874	// 8011874 <__unpack_d>
 8011042:	1909      	addi      	r1, r14, 36
 8011044:	1802      	addi      	r0, r14, 8
 8011046:	e0000417 	bsr      	0x8011874	// 8011874 <__unpack_d>
 801104a:	986a      	ld.w      	r3, (r14, 0x28)
 801104c:	e4634001 	xori      	r3, r3, 1
 8011050:	1a0e      	addi      	r2, r14, 56
 8011052:	1909      	addi      	r1, r14, 36
 8011054:	1804      	addi      	r0, r14, 16
 8011056:	b86a      	st.w      	r3, (r14, 0x28)
 8011058:	e3fffe70 	bsr      	0x8010d38	// 8010d38 <_fpadd_parts>
 801105c:	e0000344 	bsr      	0x80116e4	// 80116e4 <__pack_d>
 8011060:	1413      	addi      	r14, r14, 76
 8011062:	1492      	pop      	r4-r5, r15
 8011064:	08018810 	.long	0x08018810

08011068 <__muldf3>:
 8011068:	14d8      	push      	r4-r11, r15
 801106a:	1436      	subi      	r14, r14, 88
 801106c:	b803      	st.w      	r0, (r14, 0xc)
 801106e:	b824      	st.w      	r1, (r14, 0x10)
 8011070:	1803      	addi      	r0, r14, 12
 8011072:	1907      	addi      	r1, r14, 28
 8011074:	b866      	st.w      	r3, (r14, 0x18)
 8011076:	b845      	st.w      	r2, (r14, 0x14)
 8011078:	e00003fe 	bsr      	0x8011874	// 8011874 <__unpack_d>
 801107c:	190c      	addi      	r1, r14, 48
 801107e:	1805      	addi      	r0, r14, 20
 8011080:	e00003fa 	bsr      	0x8011874	// 8011874 <__unpack_d>
 8011084:	9867      	ld.w      	r3, (r14, 0x1c)
 8011086:	3b01      	cmphsi      	r3, 2
 8011088:	0ca4      	bf      	0x80111d0	// 80111d0 <__muldf3+0x168>
 801108a:	984c      	ld.w      	r2, (r14, 0x30)
 801108c:	3a01      	cmphsi      	r2, 2
 801108e:	0c94      	bf      	0x80111b6	// 80111b6 <__muldf3+0x14e>
 8011090:	3b44      	cmpnei      	r3, 4
 8011092:	0c9d      	bf      	0x80111cc	// 80111cc <__muldf3+0x164>
 8011094:	3a44      	cmpnei      	r2, 4
 8011096:	0c8e      	bf      	0x80111b2	// 80111b2 <__muldf3+0x14a>
 8011098:	3b42      	cmpnei      	r3, 2
 801109a:	0c9b      	bf      	0x80111d0	// 80111d0 <__muldf3+0x168>
 801109c:	3a42      	cmpnei      	r2, 2
 801109e:	0c8c      	bf      	0x80111b6	// 80111b6 <__muldf3+0x14e>
 80110a0:	d98e200f 	ld.w      	r12, (r14, 0x3c)
 80110a4:	d90e200a 	ld.w      	r8, (r14, 0x28)
 80110a8:	3300      	movi      	r3, 0
 80110aa:	6c33      	mov      	r0, r12
 80110ac:	6ca3      	mov      	r2, r8
 80110ae:	6c4f      	mov      	r1, r3
 80110b0:	dd8e2002 	st.w      	r12, (r14, 0x8)
 80110b4:	d96e2010 	ld.w      	r11, (r14, 0x40)
 80110b8:	e00002a6 	bsr      	0x8011604	// 8011604 <__muldi3>
 80110bc:	3300      	movi      	r3, 0
 80110be:	6ca3      	mov      	r2, r8
 80110c0:	6d83      	mov      	r6, r0
 80110c2:	6dc7      	mov      	r7, r1
 80110c4:	6c4f      	mov      	r1, r3
 80110c6:	6c2f      	mov      	r0, r11
 80110c8:	e000029e 	bsr      	0x8011604	// 8011604 <__muldi3>
 80110cc:	d94e200b 	ld.w      	r10, (r14, 0x2c)
 80110d0:	3300      	movi      	r3, 0
 80110d2:	6e03      	mov      	r8, r0
 80110d4:	6e47      	mov      	r9, r1
 80110d6:	6caf      	mov      	r2, r11
 80110d8:	6c4f      	mov      	r1, r3
 80110da:	6c2b      	mov      	r0, r10
 80110dc:	e0000294 	bsr      	0x8011604	// 8011604 <__muldi3>
 80110e0:	d98e2002 	ld.w      	r12, (r14, 0x8)
 80110e4:	3300      	movi      	r3, 0
 80110e6:	b800      	st.w      	r0, (r14, 0x0)
 80110e8:	b821      	st.w      	r1, (r14, 0x4)
 80110ea:	6cb3      	mov      	r2, r12
 80110ec:	6c2b      	mov      	r0, r10
 80110ee:	6c4f      	mov      	r1, r3
 80110f0:	e000028a 	bsr      	0x8011604	// 8011604 <__muldi3>
 80110f4:	6401      	cmplt      	r0, r0
 80110f6:	6021      	addc      	r0, r8
 80110f8:	6065      	addc      	r1, r9
 80110fa:	6644      	cmphs      	r1, r9
 80110fc:	0c80      	bf      	0x80111fc	// 80111fc <__muldf3+0x194>
 80110fe:	6466      	cmpne      	r9, r1
 8011100:	0c7c      	bf      	0x80111f8	// 80111f8 <__muldf3+0x190>
 8011102:	ea080000 	movi      	r8, 0
 8011106:	ea090000 	movi      	r9, 0
 801110a:	3200      	movi      	r2, 0
 801110c:	6cc3      	mov      	r3, r0
 801110e:	6489      	cmplt      	r2, r2
 8011110:	6099      	addc      	r2, r6
 8011112:	60dd      	addc      	r3, r7
 8011114:	65cc      	cmphs      	r3, r7
 8011116:	0c6a      	bf      	0x80111ea	// 80111ea <__muldf3+0x182>
 8011118:	64de      	cmpne      	r7, r3
 801111a:	0c66      	bf      	0x80111e6	// 80111e6 <__muldf3+0x17e>
 801111c:	6f07      	mov      	r12, r1
 801111e:	ea0d0000 	movi      	r13, 0
 8011122:	9800      	ld.w      	r0, (r14, 0x0)
 8011124:	9821      	ld.w      	r1, (r14, 0x4)
 8011126:	6401      	cmplt      	r0, r0
 8011128:	6031      	addc      	r0, r12
 801112a:	6075      	addc      	r1, r13
 801112c:	6621      	cmplt      	r8, r8
 801112e:	6201      	addc      	r8, r0
 8011130:	6245      	addc      	r9, r1
 8011132:	980e      	ld.w      	r0, (r14, 0x38)
 8011134:	9829      	ld.w      	r1, (r14, 0x24)
 8011136:	6040      	addu      	r1, r0
 8011138:	590e      	addi      	r0, r1, 4
 801113a:	b813      	st.w      	r0, (r14, 0x4c)
 801113c:	d98e2008 	ld.w      	r12, (r14, 0x20)
 8011140:	980d      	ld.w      	r0, (r14, 0x34)
 8011142:	6432      	cmpne      	r12, r0
 8011144:	c780502a 	bmaski      	r10, 29
 8011148:	c4000500 	mvc      	r0
 801114c:	6668      	cmphs      	r10, r9
 801114e:	b812      	st.w      	r0, (r14, 0x48)
 8011150:	086f      	bt      	0x801122e	// 801122e <__muldf3+0x1c6>
 8011152:	2104      	addi      	r1, 5
 8011154:	ea0c0000 	movi      	r12, 0
 8011158:	ea2d8000 	movih      	r13, 32768
 801115c:	e4082001 	andi      	r0, r8, 1
 8011160:	6ec7      	mov      	r11, r1
 8011162:	e900000a 	bez      	r0, 0x8011176	// 8011176 <__muldf3+0x10e>
 8011166:	431f      	lsli      	r0, r3, 31
 8011168:	4a81      	lsri      	r4, r2, 1
 801116a:	6d00      	or      	r4, r0
 801116c:	4ba1      	lsri      	r5, r3, 1
 801116e:	c5842422 	or      	r2, r4, r12
 8011172:	c5a52423 	or      	r3, r5, r13
 8011176:	c4294840 	lsri      	r0, r9, 1
 801117a:	6428      	cmphs      	r10, r0
 801117c:	c7e94827 	lsli      	r7, r9, 31
 8011180:	c4284846 	lsri      	r6, r8, 1
 8011184:	c4c72428 	or      	r8, r7, r6
 8011188:	6e43      	mov      	r9, r0
 801118a:	2100      	addi      	r1, 1
 801118c:	0fe8      	bf      	0x801115c	// 801115c <__muldf3+0xf4>
 801118e:	dd6e2013 	st.w      	r11, (r14, 0x4c)
 8011192:	e42820ff 	andi      	r1, r8, 255
 8011196:	eb410080 	cmpnei      	r1, 128
 801119a:	0c36      	bf      	0x8011206	// 8011206 <__muldf3+0x19e>
 801119c:	3303      	movi      	r3, 3
 801119e:	dd0e2014 	st.w      	r8, (r14, 0x50)
 80111a2:	dd2e2015 	st.w      	r9, (r14, 0x54)
 80111a6:	b871      	st.w      	r3, (r14, 0x44)
 80111a8:	1811      	addi      	r0, r14, 68
 80111aa:	e000029d 	bsr      	0x80116e4	// 80116e4 <__pack_d>
 80111ae:	1416      	addi      	r14, r14, 88
 80111b0:	1498      	pop      	r4-r11, r15
 80111b2:	3b42      	cmpnei      	r3, 2
 80111b4:	0c3b      	bf      	0x801122a	// 801122a <__muldf3+0x1c2>
 80111b6:	986d      	ld.w      	r3, (r14, 0x34)
 80111b8:	9848      	ld.w      	r2, (r14, 0x20)
 80111ba:	64ca      	cmpne      	r2, r3
 80111bc:	c4000503 	mvc      	r3
 80111c0:	180c      	addi      	r0, r14, 48
 80111c2:	b86d      	st.w      	r3, (r14, 0x34)
 80111c4:	e0000290 	bsr      	0x80116e4	// 80116e4 <__pack_d>
 80111c8:	1416      	addi      	r14, r14, 88
 80111ca:	1498      	pop      	r4-r11, r15
 80111cc:	3a42      	cmpnei      	r2, 2
 80111ce:	0c2e      	bf      	0x801122a	// 801122a <__muldf3+0x1c2>
 80111d0:	9848      	ld.w      	r2, (r14, 0x20)
 80111d2:	986d      	ld.w      	r3, (r14, 0x34)
 80111d4:	64ca      	cmpne      	r2, r3
 80111d6:	c4000503 	mvc      	r3
 80111da:	1807      	addi      	r0, r14, 28
 80111dc:	b868      	st.w      	r3, (r14, 0x20)
 80111de:	e0000283 	bsr      	0x80116e4	// 80116e4 <__pack_d>
 80111e2:	1416      	addi      	r14, r14, 88
 80111e4:	1498      	pop      	r4-r11, r15
 80111e6:	6588      	cmphs      	r2, r6
 80111e8:	0b9a      	bt      	0x801111c	// 801111c <__muldf3+0xb4>
 80111ea:	e5080000 	addi      	r8, r8, 1
 80111ee:	eb480000 	cmpnei      	r8, 0
 80111f2:	c5290c21 	incf      	r9, r9, 1
 80111f6:	0793      	br      	0x801111c	// 801111c <__muldf3+0xb4>
 80111f8:	6600      	cmphs      	r0, r8
 80111fa:	0b84      	bt      	0x8011102	// 8011102 <__muldf3+0x9a>
 80111fc:	ea080000 	movi      	r8, 0
 8011200:	ea090001 	movi      	r9, 1
 8011204:	0783      	br      	0x801110a	// 801110a <__muldf3+0xa2>
 8011206:	e4282100 	andi      	r1, r8, 256
 801120a:	e921ffc9 	bnez      	r1, 0x801119c	// 801119c <__muldf3+0x134>
 801120e:	6c8c      	or      	r2, r3
 8011210:	e902ffc6 	bez      	r2, 0x801119c	// 801119c <__muldf3+0x134>
 8011214:	3280      	movi      	r2, 128
 8011216:	3300      	movi      	r3, 0
 8011218:	3100      	movi      	r1, 0
 801121a:	6489      	cmplt      	r2, r2
 801121c:	60a1      	addc      	r2, r8
 801121e:	60e5      	addc      	r3, r9
 8011220:	29ff      	subi      	r1, 256
 8011222:	c4222028 	and      	r8, r2, r1
 8011226:	6e4f      	mov      	r9, r3
 8011228:	07ba      	br      	0x801119c	// 801119c <__muldf3+0x134>
 801122a:	100f      	lrw      	r0, 0x8018810	// 8011264 <__muldf3+0x1fc>
 801122c:	07bf      	br      	0x80111aa	// 80111aa <__muldf3+0x142>
 801122e:	c760502c 	bmaski      	r12, 28
 8011232:	6670      	cmphs      	r12, r9
 8011234:	0faf      	bf      	0x8011192	// 8011192 <__muldf3+0x12a>
 8011236:	2102      	addi      	r1, 3
 8011238:	3401      	movi      	r4, 1
 801123a:	3500      	movi      	r5, 0
 801123c:	6da3      	mov      	r6, r8
 801123e:	6de7      	mov      	r7, r9
 8011240:	6c07      	mov      	r0, r1
 8011242:	6621      	cmplt      	r8, r8
 8011244:	6219      	addc      	r8, r6
 8011246:	625d      	addc      	r9, r7
 8011248:	e9a30004 	bhsz      	r3, 0x8011250	// 8011250 <__muldf3+0x1e8>
 801124c:	6e10      	or      	r8, r4
 801124e:	6e54      	or      	r9, r5
 8011250:	6d8b      	mov      	r6, r2
 8011252:	6dcf      	mov      	r7, r3
 8011254:	6489      	cmplt      	r2, r2
 8011256:	6099      	addc      	r2, r6
 8011258:	60dd      	addc      	r3, r7
 801125a:	6670      	cmphs      	r12, r9
 801125c:	2900      	subi      	r1, 1
 801125e:	0bef      	bt      	0x801123c	// 801123c <__muldf3+0x1d4>
 8011260:	b813      	st.w      	r0, (r14, 0x4c)
 8011262:	0798      	br      	0x8011192	// 8011192 <__muldf3+0x12a>
 8011264:	08018810 	.long	0x08018810

08011268 <__divdf3>:
 8011268:	14d6      	push      	r4-r9, r15
 801126a:	142e      	subi      	r14, r14, 56
 801126c:	b800      	st.w      	r0, (r14, 0x0)
 801126e:	b821      	st.w      	r1, (r14, 0x4)
 8011270:	6c3b      	mov      	r0, r14
 8011272:	1904      	addi      	r1, r14, 16
 8011274:	b863      	st.w      	r3, (r14, 0xc)
 8011276:	b842      	st.w      	r2, (r14, 0x8)
 8011278:	e00002fe 	bsr      	0x8011874	// 8011874 <__unpack_d>
 801127c:	1909      	addi      	r1, r14, 36
 801127e:	1802      	addi      	r0, r14, 8
 8011280:	e00002fa 	bsr      	0x8011874	// 8011874 <__unpack_d>
 8011284:	9864      	ld.w      	r3, (r14, 0x10)
 8011286:	3b01      	cmphsi      	r3, 2
 8011288:	0c51      	bf      	0x801132a	// 801132a <__divdf3+0xc2>
 801128a:	9829      	ld.w      	r1, (r14, 0x24)
 801128c:	3201      	movi      	r2, 1
 801128e:	6448      	cmphs      	r2, r1
 8011290:	0873      	bt      	0x8011376	// 8011376 <__divdf3+0x10e>
 8011292:	9845      	ld.w      	r2, (r14, 0x14)
 8011294:	980a      	ld.w      	r0, (r14, 0x28)
 8011296:	3b44      	cmpnei      	r3, 4
 8011298:	6c81      	xor      	r2, r0
 801129a:	b845      	st.w      	r2, (r14, 0x14)
 801129c:	0c4c      	bf      	0x8011334	// 8011334 <__divdf3+0xcc>
 801129e:	3b42      	cmpnei      	r3, 2
 80112a0:	0c4a      	bf      	0x8011334	// 8011334 <__divdf3+0xcc>
 80112a2:	3944      	cmpnei      	r1, 4
 80112a4:	0c4c      	bf      	0x801133c	// 801133c <__divdf3+0xd4>
 80112a6:	3942      	cmpnei      	r1, 2
 80112a8:	0c63      	bf      	0x801136e	// 801136e <__divdf3+0x106>
 80112aa:	9807      	ld.w      	r0, (r14, 0x1c)
 80112ac:	9828      	ld.w      	r1, (r14, 0x20)
 80112ae:	98cc      	ld.w      	r6, (r14, 0x30)
 80112b0:	98ed      	ld.w      	r7, (r14, 0x34)
 80112b2:	9866      	ld.w      	r3, (r14, 0x18)
 80112b4:	984b      	ld.w      	r2, (r14, 0x2c)
 80112b6:	65c4      	cmphs      	r1, r7
 80112b8:	60ca      	subu      	r3, r2
 80112ba:	b866      	st.w      	r3, (r14, 0x18)
 80112bc:	0c05      	bf      	0x80112c6	// 80112c6 <__divdf3+0x5e>
 80112be:	645e      	cmpne      	r7, r1
 80112c0:	080a      	bt      	0x80112d4	// 80112d4 <__divdf3+0x6c>
 80112c2:	6580      	cmphs      	r0, r6
 80112c4:	0808      	bt      	0x80112d4	// 80112d4 <__divdf3+0x6c>
 80112c6:	6f03      	mov      	r12, r0
 80112c8:	6f47      	mov      	r13, r1
 80112ca:	2b00      	subi      	r3, 1
 80112cc:	6401      	cmplt      	r0, r0
 80112ce:	6031      	addc      	r0, r12
 80112d0:	6075      	addc      	r1, r13
 80112d2:	b866      	st.w      	r3, (r14, 0x18)
 80112d4:	ea0c003d 	movi      	r12, 61
 80112d8:	3400      	movi      	r4, 0
 80112da:	3500      	movi      	r5, 0
 80112dc:	3200      	movi      	r2, 0
 80112de:	ea231000 	movih      	r3, 4096
 80112e2:	65c4      	cmphs      	r1, r7
 80112e4:	0c0a      	bf      	0x80112f8	// 80112f8 <__divdf3+0x90>
 80112e6:	645e      	cmpne      	r7, r1
 80112e8:	0803      	bt      	0x80112ee	// 80112ee <__divdf3+0x86>
 80112ea:	6580      	cmphs      	r0, r6
 80112ec:	0c06      	bf      	0x80112f8	// 80112f8 <__divdf3+0x90>
 80112ee:	6d08      	or      	r4, r2
 80112f0:	6d4c      	or      	r5, r3
 80112f2:	6400      	cmphs      	r0, r0
 80112f4:	601b      	subc      	r0, r6
 80112f6:	605f      	subc      	r1, r7
 80112f8:	c7e34829 	lsli      	r9, r3, 31
 80112fc:	c4224848 	lsri      	r8, r2, 1
 8011300:	c423484d 	lsri      	r13, r3, 1
 8011304:	c5092422 	or      	r2, r9, r8
 8011308:	e58c1000 	subi      	r12, r12, 1
 801130c:	6e03      	mov      	r8, r0
 801130e:	6e47      	mov      	r9, r1
 8011310:	6cf7      	mov      	r3, r13
 8011312:	6401      	cmplt      	r0, r0
 8011314:	6021      	addc      	r0, r8
 8011316:	6065      	addc      	r1, r9
 8011318:	e92cffe5 	bnez      	r12, 0x80112e2	// 80112e2 <__divdf3+0x7a>
 801131c:	e46420ff 	andi      	r3, r4, 255
 8011320:	eb430080 	cmpnei      	r3, 128
 8011324:	0c13      	bf      	0x801134a	// 801134a <__divdf3+0xe2>
 8011326:	b887      	st.w      	r4, (r14, 0x1c)
 8011328:	b8a8      	st.w      	r5, (r14, 0x20)
 801132a:	1804      	addi      	r0, r14, 16
 801132c:	e00001dc 	bsr      	0x80116e4	// 80116e4 <__pack_d>
 8011330:	140e      	addi      	r14, r14, 56
 8011332:	1496      	pop      	r4-r9, r15
 8011334:	644e      	cmpne      	r3, r1
 8011336:	0bfa      	bt      	0x801132a	// 801132a <__divdf3+0xc2>
 8011338:	1011      	lrw      	r0, 0x8018810	// 801137c <__divdf3+0x114>
 801133a:	07f9      	br      	0x801132c	// 801132c <__divdf3+0xc4>
 801133c:	3300      	movi      	r3, 0
 801133e:	3400      	movi      	r4, 0
 8011340:	b867      	st.w      	r3, (r14, 0x1c)
 8011342:	b888      	st.w      	r4, (r14, 0x20)
 8011344:	b866      	st.w      	r3, (r14, 0x18)
 8011346:	1804      	addi      	r0, r14, 16
 8011348:	07f2      	br      	0x801132c	// 801132c <__divdf3+0xc4>
 801134a:	e4642100 	andi      	r3, r4, 256
 801134e:	e923ffec 	bnez      	r3, 0x8011326	// 8011326 <__divdf3+0xbe>
 8011352:	6c04      	or      	r0, r1
 8011354:	e900ffe9 	bez      	r0, 0x8011326	// 8011326 <__divdf3+0xbe>
 8011358:	3280      	movi      	r2, 128
 801135a:	3300      	movi      	r3, 0
 801135c:	3100      	movi      	r1, 0
 801135e:	6489      	cmplt      	r2, r2
 8011360:	6091      	addc      	r2, r4
 8011362:	60d5      	addc      	r3, r5
 8011364:	29ff      	subi      	r1, 256
 8011366:	c4222024 	and      	r4, r2, r1
 801136a:	6d4f      	mov      	r5, r3
 801136c:	07dd      	br      	0x8011326	// 8011326 <__divdf3+0xbe>
 801136e:	3304      	movi      	r3, 4
 8011370:	b864      	st.w      	r3, (r14, 0x10)
 8011372:	1804      	addi      	r0, r14, 16
 8011374:	07dc      	br      	0x801132c	// 801132c <__divdf3+0xc4>
 8011376:	1809      	addi      	r0, r14, 36
 8011378:	07da      	br      	0x801132c	// 801132c <__divdf3+0xc4>
 801137a:	0000      	.short	0x0000
 801137c:	08018810 	.long	0x08018810

08011380 <__nedf2>:
 8011380:	14d2      	push      	r4-r5, r15
 8011382:	142e      	subi      	r14, r14, 56
 8011384:	b800      	st.w      	r0, (r14, 0x0)
 8011386:	b821      	st.w      	r1, (r14, 0x4)
 8011388:	6c3b      	mov      	r0, r14
 801138a:	6d47      	mov      	r5, r1
 801138c:	1904      	addi      	r1, r14, 16
 801138e:	b863      	st.w      	r3, (r14, 0xc)
 8011390:	b842      	st.w      	r2, (r14, 0x8)
 8011392:	e0000271 	bsr      	0x8011874	// 8011874 <__unpack_d>
 8011396:	1802      	addi      	r0, r14, 8
 8011398:	1909      	addi      	r1, r14, 36
 801139a:	e000026d 	bsr      	0x8011874	// 8011874 <__unpack_d>
 801139e:	9864      	ld.w      	r3, (r14, 0x10)
 80113a0:	3001      	movi      	r0, 1
 80113a2:	64c0      	cmphs      	r0, r3
 80113a4:	0808      	bt      	0x80113b4	// 80113b4 <__nedf2+0x34>
 80113a6:	9869      	ld.w      	r3, (r14, 0x24)
 80113a8:	64c0      	cmphs      	r0, r3
 80113aa:	0805      	bt      	0x80113b4	// 80113b4 <__nedf2+0x34>
 80113ac:	1909      	addi      	r1, r14, 36
 80113ae:	1804      	addi      	r0, r14, 16
 80113b0:	e00002d4 	bsr      	0x8011958	// 8011958 <__fpcmp_parts_d>
 80113b4:	140e      	addi      	r14, r14, 56
 80113b6:	1492      	pop      	r4-r5, r15

080113b8 <__gtdf2>:
 80113b8:	14d2      	push      	r4-r5, r15
 80113ba:	142e      	subi      	r14, r14, 56
 80113bc:	b800      	st.w      	r0, (r14, 0x0)
 80113be:	b821      	st.w      	r1, (r14, 0x4)
 80113c0:	6c3b      	mov      	r0, r14
 80113c2:	6d47      	mov      	r5, r1
 80113c4:	1904      	addi      	r1, r14, 16
 80113c6:	b842      	st.w      	r2, (r14, 0x8)
 80113c8:	b863      	st.w      	r3, (r14, 0xc)
 80113ca:	e0000255 	bsr      	0x8011874	// 8011874 <__unpack_d>
 80113ce:	1909      	addi      	r1, r14, 36
 80113d0:	1802      	addi      	r0, r14, 8
 80113d2:	e0000251 	bsr      	0x8011874	// 8011874 <__unpack_d>
 80113d6:	9844      	ld.w      	r2, (r14, 0x10)
 80113d8:	3301      	movi      	r3, 1
 80113da:	648c      	cmphs      	r3, r2
 80113dc:	080a      	bt      	0x80113f0	// 80113f0 <__gtdf2+0x38>
 80113de:	9849      	ld.w      	r2, (r14, 0x24)
 80113e0:	648c      	cmphs      	r3, r2
 80113e2:	0807      	bt      	0x80113f0	// 80113f0 <__gtdf2+0x38>
 80113e4:	1909      	addi      	r1, r14, 36
 80113e6:	1804      	addi      	r0, r14, 16
 80113e8:	e00002b8 	bsr      	0x8011958	// 8011958 <__fpcmp_parts_d>
 80113ec:	140e      	addi      	r14, r14, 56
 80113ee:	1492      	pop      	r4-r5, r15
 80113f0:	3000      	movi      	r0, 0
 80113f2:	2800      	subi      	r0, 1
 80113f4:	140e      	addi      	r14, r14, 56
 80113f6:	1492      	pop      	r4-r5, r15

080113f8 <__gedf2>:
 80113f8:	14d2      	push      	r4-r5, r15
 80113fa:	142e      	subi      	r14, r14, 56
 80113fc:	b800      	st.w      	r0, (r14, 0x0)
 80113fe:	b821      	st.w      	r1, (r14, 0x4)
 8011400:	6c3b      	mov      	r0, r14
 8011402:	6d47      	mov      	r5, r1
 8011404:	1904      	addi      	r1, r14, 16
 8011406:	b842      	st.w      	r2, (r14, 0x8)
 8011408:	b863      	st.w      	r3, (r14, 0xc)
 801140a:	e0000235 	bsr      	0x8011874	// 8011874 <__unpack_d>
 801140e:	1909      	addi      	r1, r14, 36
 8011410:	1802      	addi      	r0, r14, 8
 8011412:	e0000231 	bsr      	0x8011874	// 8011874 <__unpack_d>
 8011416:	9844      	ld.w      	r2, (r14, 0x10)
 8011418:	3301      	movi      	r3, 1
 801141a:	648c      	cmphs      	r3, r2
 801141c:	080a      	bt      	0x8011430	// 8011430 <__gedf2+0x38>
 801141e:	9849      	ld.w      	r2, (r14, 0x24)
 8011420:	648c      	cmphs      	r3, r2
 8011422:	0807      	bt      	0x8011430	// 8011430 <__gedf2+0x38>
 8011424:	1909      	addi      	r1, r14, 36
 8011426:	1804      	addi      	r0, r14, 16
 8011428:	e0000298 	bsr      	0x8011958	// 8011958 <__fpcmp_parts_d>
 801142c:	140e      	addi      	r14, r14, 56
 801142e:	1492      	pop      	r4-r5, r15
 8011430:	3000      	movi      	r0, 0
 8011432:	2800      	subi      	r0, 1
 8011434:	140e      	addi      	r14, r14, 56
 8011436:	1492      	pop      	r4-r5, r15

08011438 <__ltdf2>:
 8011438:	14d2      	push      	r4-r5, r15
 801143a:	142e      	subi      	r14, r14, 56
 801143c:	b800      	st.w      	r0, (r14, 0x0)
 801143e:	b821      	st.w      	r1, (r14, 0x4)
 8011440:	6c3b      	mov      	r0, r14
 8011442:	6d47      	mov      	r5, r1
 8011444:	1904      	addi      	r1, r14, 16
 8011446:	b863      	st.w      	r3, (r14, 0xc)
 8011448:	b842      	st.w      	r2, (r14, 0x8)
 801144a:	e0000215 	bsr      	0x8011874	// 8011874 <__unpack_d>
 801144e:	1802      	addi      	r0, r14, 8
 8011450:	1909      	addi      	r1, r14, 36
 8011452:	e0000211 	bsr      	0x8011874	// 8011874 <__unpack_d>
 8011456:	9864      	ld.w      	r3, (r14, 0x10)
 8011458:	3001      	movi      	r0, 1
 801145a:	64c0      	cmphs      	r0, r3
 801145c:	0808      	bt      	0x801146c	// 801146c <__ltdf2+0x34>
 801145e:	9869      	ld.w      	r3, (r14, 0x24)
 8011460:	64c0      	cmphs      	r0, r3
 8011462:	0805      	bt      	0x801146c	// 801146c <__ltdf2+0x34>
 8011464:	1909      	addi      	r1, r14, 36
 8011466:	1804      	addi      	r0, r14, 16
 8011468:	e0000278 	bsr      	0x8011958	// 8011958 <__fpcmp_parts_d>
 801146c:	140e      	addi      	r14, r14, 56
 801146e:	1492      	pop      	r4-r5, r15

08011470 <__floatsidf>:
 8011470:	14d0      	push      	r15
 8011472:	1425      	subi      	r14, r14, 20
 8011474:	3303      	movi      	r3, 3
 8011476:	b860      	st.w      	r3, (r14, 0x0)
 8011478:	487f      	lsri      	r3, r0, 31
 801147a:	b861      	st.w      	r3, (r14, 0x4)
 801147c:	e9200009 	bnez      	r0, 0x801148e	// 801148e <__floatsidf+0x1e>
 8011480:	3302      	movi      	r3, 2
 8011482:	b860      	st.w      	r3, (r14, 0x0)
 8011484:	6c3b      	mov      	r0, r14
 8011486:	e000012f 	bsr      	0x80116e4	// 80116e4 <__pack_d>
 801148a:	1405      	addi      	r14, r14, 20
 801148c:	1490      	pop      	r15
 801148e:	e9a00008 	bhsz      	r0, 0x801149e	// 801149e <__floatsidf+0x2e>
 8011492:	ea238000 	movih      	r3, 32768
 8011496:	64c2      	cmpne      	r0, r3
 8011498:	0c1c      	bf      	0x80114d0	// 80114d0 <__floatsidf+0x60>
 801149a:	3300      	movi      	r3, 0
 801149c:	5b01      	subu      	r0, r3, r0
 801149e:	c4007c42 	ff1      	r2, r0
 80114a2:	e422001c 	addi      	r1, r2, 29
 80114a6:	ea0c001f 	movi      	r12, 31
 80114aa:	2a02      	subi      	r2, 3
 80114ac:	4861      	lsri      	r3, r0, 1
 80114ae:	6306      	subu      	r12, r1
 80114b0:	c440402d 	lsl      	r13, r0, r2
 80114b4:	3adf      	btsti      	r2, 31
 80114b6:	70f1      	lsr      	r3, r12
 80114b8:	c46d0c20 	incf      	r3, r13, 0
 80114bc:	7004      	lsl      	r0, r1
 80114be:	b864      	st.w      	r3, (r14, 0x10)
 80114c0:	3300      	movi      	r3, 0
 80114c2:	c4030c20 	incf      	r0, r3, 0
 80114c6:	333c      	movi      	r3, 60
 80114c8:	60c6      	subu      	r3, r1
 80114ca:	b803      	st.w      	r0, (r14, 0xc)
 80114cc:	b862      	st.w      	r3, (r14, 0x8)
 80114ce:	07db      	br      	0x8011484	// 8011484 <__floatsidf+0x14>
 80114d0:	3000      	movi      	r0, 0
 80114d2:	ea21c1e0 	movih      	r1, 49632
 80114d6:	07da      	br      	0x801148a	// 801148a <__floatsidf+0x1a>

080114d8 <__fixdfsi>:
 80114d8:	14d0      	push      	r15
 80114da:	1427      	subi      	r14, r14, 28
 80114dc:	b800      	st.w      	r0, (r14, 0x0)
 80114de:	b821      	st.w      	r1, (r14, 0x4)
 80114e0:	6c3b      	mov      	r0, r14
 80114e2:	1902      	addi      	r1, r14, 8
 80114e4:	e00001c8 	bsr      	0x8011874	// 8011874 <__unpack_d>
 80114e8:	9862      	ld.w      	r3, (r14, 0x8)
 80114ea:	3202      	movi      	r2, 2
 80114ec:	64c8      	cmphs      	r2, r3
 80114ee:	082a      	bt      	0x8011542	// 8011542 <__fixdfsi+0x6a>
 80114f0:	3b44      	cmpnei      	r3, 4
 80114f2:	0c06      	bf      	0x80114fe	// 80114fe <__fixdfsi+0x26>
 80114f4:	9804      	ld.w      	r0, (r14, 0x10)
 80114f6:	e9800026 	blz      	r0, 0x8011542	// 8011542 <__fixdfsi+0x6a>
 80114fa:	383e      	cmplti      	r0, 31
 80114fc:	080a      	bt      	0x8011510	// 8011510 <__fixdfsi+0x38>
 80114fe:	9863      	ld.w      	r3, (r14, 0xc)
 8011500:	3b40      	cmpnei      	r3, 0
 8011502:	c4000500 	mvc      	r0
 8011506:	c7c05023 	bmaski      	r3, 31
 801150a:	600c      	addu      	r0, r3
 801150c:	1407      	addi      	r14, r14, 28
 801150e:	1490      	pop      	r15
 8011510:	323c      	movi      	r2, 60
 8011512:	5a21      	subu      	r1, r2, r0
 8011514:	e581101f 	subi      	r12, r1, 32
 8011518:	9866      	ld.w      	r3, (r14, 0x18)
 801151a:	321f      	movi      	r2, 31
 801151c:	c5834040 	lsr      	r0, r3, r12
 8011520:	6086      	subu      	r2, r1
 8011522:	4361      	lsli      	r3, r3, 1
 8011524:	70c8      	lsl      	r3, r2
 8011526:	9845      	ld.w      	r2, (r14, 0x14)
 8011528:	7085      	lsr      	r2, r1
 801152a:	6c8c      	or      	r2, r3
 801152c:	9863      	ld.w      	r3, (r14, 0xc)
 801152e:	c7ec2880 	btsti      	r12, 31
 8011532:	c4020c40 	inct      	r0, r2, 0
 8011536:	e903ffeb 	bez      	r3, 0x801150c	// 801150c <__fixdfsi+0x34>
 801153a:	3300      	movi      	r3, 0
 801153c:	5b01      	subu      	r0, r3, r0
 801153e:	1407      	addi      	r14, r14, 28
 8011540:	1490      	pop      	r15
 8011542:	3000      	movi      	r0, 0
 8011544:	1407      	addi      	r14, r14, 28
 8011546:	1490      	pop      	r15

08011548 <__make_dp>:
 8011548:	1421      	subi      	r14, r14, 4
 801154a:	14d0      	push      	r15
 801154c:	1425      	subi      	r14, r14, 20
 801154e:	b866      	st.w      	r3, (r14, 0x18)
 8011550:	d98e2006 	ld.w      	r12, (r14, 0x18)
 8011554:	d9ae2007 	ld.w      	r13, (r14, 0x1c)
 8011558:	b800      	st.w      	r0, (r14, 0x0)
 801155a:	6c3b      	mov      	r0, r14
 801155c:	b821      	st.w      	r1, (r14, 0x4)
 801155e:	b842      	st.w      	r2, (r14, 0x8)
 8011560:	dd8e2003 	st.w      	r12, (r14, 0xc)
 8011564:	ddae2004 	st.w      	r13, (r14, 0x10)
 8011568:	e00000be 	bsr      	0x80116e4	// 80116e4 <__pack_d>
 801156c:	1405      	addi      	r14, r14, 20
 801156e:	d9ee2000 	ld.w      	r15, (r14, 0x0)
 8011572:	1402      	addi      	r14, r14, 8
 8011574:	783c      	jmp      	r15
	...

08011578 <__truncdfsf2>:
 8011578:	14d0      	push      	r15
 801157a:	1427      	subi      	r14, r14, 28
 801157c:	b800      	st.w      	r0, (r14, 0x0)
 801157e:	b821      	st.w      	r1, (r14, 0x4)
 8011580:	6c3b      	mov      	r0, r14
 8011582:	1902      	addi      	r1, r14, 8
 8011584:	e0000178 	bsr      	0x8011874	// 8011874 <__unpack_d>
 8011588:	9845      	ld.w      	r2, (r14, 0x14)
 801158a:	4a3e      	lsri      	r1, r2, 30
 801158c:	9866      	ld.w      	r3, (r14, 0x18)
 801158e:	c40257a2 	zext      	r2, r2, 29, 0
 8011592:	4362      	lsli      	r3, r3, 2
 8011594:	6cc4      	or      	r3, r1
 8011596:	e9020004 	bez      	r2, 0x801159e	// 801159e <__truncdfsf2+0x26>
 801159a:	ec630001 	ori      	r3, r3, 1
 801159e:	9844      	ld.w      	r2, (r14, 0x10)
 80115a0:	9823      	ld.w      	r1, (r14, 0xc)
 80115a2:	9802      	ld.w      	r0, (r14, 0x8)
 80115a4:	e0000094 	bsr      	0x80116cc	// 80116cc <__make_fp>
 80115a8:	1407      	addi      	r14, r14, 28
 80115aa:	1490      	pop      	r15

080115ac <__floatunsidf>:
 80115ac:	14d1      	push      	r4, r15
 80115ae:	1425      	subi      	r14, r14, 20
 80115b0:	3100      	movi      	r1, 0
 80115b2:	b821      	st.w      	r1, (r14, 0x4)
 80115b4:	e9000020 	bez      	r0, 0x80115f4	// 80115f4 <__floatunsidf+0x48>
 80115b8:	c4007c42 	ff1      	r2, r0
 80115bc:	e582001c 	addi      	r12, r2, 29
 80115c0:	3303      	movi      	r3, 3
 80115c2:	ea0d001f 	movi      	r13, 31
 80115c6:	2a02      	subi      	r2, 3
 80115c8:	b860      	st.w      	r3, (r14, 0x0)
 80115ca:	6372      	subu      	r13, r12
 80115cc:	4861      	lsri      	r3, r0, 1
 80115ce:	c4404024 	lsl      	r4, r0, r2
 80115d2:	3adf      	btsti      	r2, 31
 80115d4:	70f5      	lsr      	r3, r13
 80115d6:	c4640c20 	incf      	r3, r4, 0
 80115da:	7030      	lsl      	r0, r12
 80115dc:	c4010c20 	incf      	r0, r1, 0
 80115e0:	b864      	st.w      	r3, (r14, 0x10)
 80115e2:	333c      	movi      	r3, 60
 80115e4:	b803      	st.w      	r0, (r14, 0xc)
 80115e6:	60f2      	subu      	r3, r12
 80115e8:	6c3b      	mov      	r0, r14
 80115ea:	b862      	st.w      	r3, (r14, 0x8)
 80115ec:	e000007c 	bsr      	0x80116e4	// 80116e4 <__pack_d>
 80115f0:	1405      	addi      	r14, r14, 20
 80115f2:	1491      	pop      	r4, r15
 80115f4:	3302      	movi      	r3, 2
 80115f6:	6c3b      	mov      	r0, r14
 80115f8:	b860      	st.w      	r3, (r14, 0x0)
 80115fa:	e0000075 	bsr      	0x80116e4	// 80116e4 <__pack_d>
 80115fe:	1405      	addi      	r14, r14, 20
 8011600:	1491      	pop      	r4, r15
	...

08011604 <__muldi3>:
 8011604:	14c3      	push      	r4-r6
 8011606:	c602484d 	lsri      	r13, r2, 16
 801160a:	c40055ec 	zext      	r12, r0, 15, 0
 801160e:	4890      	lsri      	r4, r0, 16
 8011610:	c40255e5 	zext      	r5, r2, 15, 0
 8011614:	c4ac8426 	mult      	r6, r12, r5
 8011618:	7d50      	mult      	r5, r4
 801161a:	7f34      	mult      	r12, r13
 801161c:	7d34      	mult      	r4, r13
 801161e:	c4ac002d 	addu      	r13, r12, r5
 8011622:	c606484c 	lsri      	r12, r6, 16
 8011626:	6334      	addu      	r12, r13
 8011628:	6570      	cmphs      	r12, r5
 801162a:	0804      	bt      	0x8011632	// 8011632 <__muldi3+0x2e>
 801162c:	ea2d0001 	movih      	r13, 1
 8011630:	6134      	addu      	r4, r13
 8011632:	c60c484d 	lsri      	r13, r12, 16
 8011636:	7cc0      	mult      	r3, r0
 8011638:	7c48      	mult      	r1, r2
 801163a:	6134      	addu      	r4, r13
 801163c:	c60c482c 	lsli      	r12, r12, 16
 8011640:	c40655e6 	zext      	r6, r6, 15, 0
 8011644:	604c      	addu      	r1, r3
 8011646:	c4cc0020 	addu      	r0, r12, r6
 801164a:	6050      	addu      	r1, r4
 801164c:	1483      	pop      	r4-r6
	...

08011650 <__unpack_f>:
 8011650:	8841      	ld.h      	r2, (r0, 0x2)
 8011652:	9060      	ld.w      	r3, (r0, 0x0)
 8011654:	c4e255c2 	zext      	r2, r2, 14, 7
 8011658:	8003      	ld.b      	r0, (r0, 0x3)
 801165a:	4807      	lsri      	r0, r0, 7
 801165c:	c40356c3 	zext      	r3, r3, 22, 0
 8011660:	b101      	st.w      	r0, (r1, 0x4)
 8011662:	e9220013 	bnez      	r2, 0x8011688	// 8011688 <__unpack_f+0x38>
 8011666:	e903001c 	bez      	r3, 0x801169e	// 801169e <__unpack_f+0x4e>
 801166a:	3203      	movi      	r2, 3
 801166c:	b140      	st.w      	r2, (r1, 0x0)
 801166e:	3200      	movi      	r2, 0
 8011670:	4367      	lsli      	r3, r3, 7
 8011672:	2a7e      	subi      	r2, 127
 8011674:	c7a0502c 	bmaski      	r12, 30
 8011678:	60cc      	addu      	r3, r3
 801167a:	64f0      	cmphs      	r12, r3
 801167c:	6c0b      	mov      	r0, r2
 801167e:	2a00      	subi      	r2, 1
 8011680:	0bfc      	bt      	0x8011678	// 8011678 <__unpack_f+0x28>
 8011682:	b102      	st.w      	r0, (r1, 0x8)
 8011684:	b163      	st.w      	r3, (r1, 0xc)
 8011686:	783c      	jmp      	r15
 8011688:	eb4200ff 	cmpnei      	r2, 255
 801168c:	0c0c      	bf      	0x80116a4	// 80116a4 <__unpack_f+0x54>
 801168e:	2a7e      	subi      	r2, 127
 8011690:	4367      	lsli      	r3, r3, 7
 8011692:	b142      	st.w      	r2, (r1, 0x8)
 8011694:	3bbe      	bseti      	r3, 30
 8011696:	3203      	movi      	r2, 3
 8011698:	b140      	st.w      	r2, (r1, 0x0)
 801169a:	b163      	st.w      	r3, (r1, 0xc)
 801169c:	783c      	jmp      	r15
 801169e:	3302      	movi      	r3, 2
 80116a0:	b160      	st.w      	r3, (r1, 0x0)
 80116a2:	783c      	jmp      	r15
 80116a4:	e903000f 	bez      	r3, 0x80116c2	// 80116c2 <__unpack_f+0x72>
 80116a8:	ea220040 	movih      	r2, 64
 80116ac:	688c      	and      	r2, r3
 80116ae:	3a40      	cmpnei      	r2, 0
 80116b0:	3001      	movi      	r0, 1
 80116b2:	c4400c40 	inct      	r2, r0, 0
 80116b6:	b140      	st.w      	r2, (r1, 0x0)
 80116b8:	4367      	lsli      	r3, r3, 7
 80116ba:	1044      	lrw      	r2, 0xdfffff80	// 80116c8 <__unpack_f+0x78>
 80116bc:	68c8      	and      	r3, r2
 80116be:	b163      	st.w      	r3, (r1, 0xc)
 80116c0:	07ee      	br      	0x801169c	// 801169c <__unpack_f+0x4c>
 80116c2:	3304      	movi      	r3, 4
 80116c4:	b160      	st.w      	r3, (r1, 0x0)
 80116c6:	07eb      	br      	0x801169c	// 801169c <__unpack_f+0x4c>
 80116c8:	dfffff80 	.long	0xdfffff80

080116cc <__make_fp>:
 80116cc:	14d0      	push      	r15
 80116ce:	1424      	subi      	r14, r14, 16
 80116d0:	b800      	st.w      	r0, (r14, 0x0)
 80116d2:	6c3b      	mov      	r0, r14
 80116d4:	b821      	st.w      	r1, (r14, 0x4)
 80116d6:	b842      	st.w      	r2, (r14, 0x8)
 80116d8:	b863      	st.w      	r3, (r14, 0xc)
 80116da:	e00001a1 	bsr      	0x8011a1c	// 8011a1c <__pack_f>
 80116de:	1404      	addi      	r14, r14, 16
 80116e0:	1490      	pop      	r15
	...

080116e4 <__pack_d>:
 80116e4:	14c5      	push      	r4-r8
 80116e6:	9020      	ld.w      	r1, (r0, 0x0)
 80116e8:	3901      	cmphsi      	r1, 2
 80116ea:	9043      	ld.w      	r2, (r0, 0xc)
 80116ec:	9064      	ld.w      	r3, (r0, 0x10)
 80116ee:	d9a02001 	ld.w      	r13, (r0, 0x4)
 80116f2:	0c47      	bf      	0x8011780	// 8011780 <__pack_d+0x9c>
 80116f4:	3944      	cmpnei      	r1, 4
 80116f6:	0c40      	bf      	0x8011776	// 8011776 <__pack_d+0x92>
 80116f8:	3942      	cmpnei      	r1, 2
 80116fa:	0c28      	bf      	0x801174a	// 801174a <__pack_d+0x66>
 80116fc:	c4622421 	or      	r1, r2, r3
 8011700:	e9010025 	bez      	r1, 0x801174a	// 801174a <__pack_d+0x66>
 8011704:	9022      	ld.w      	r1, (r0, 0x8)
 8011706:	ea0003fd 	movi      	r0, 1021
 801170a:	6c02      	nor      	r0, r0
 801170c:	6405      	cmplt      	r1, r0
 801170e:	0855      	bt      	0x80117b8	// 80117b8 <__pack_d+0xd4>
 8011710:	eb2103ff 	cmplti      	r1, 1024
 8011714:	0c31      	bf      	0x8011776	// 8011776 <__pack_d+0x92>
 8011716:	e40220ff 	andi      	r0, r2, 255
 801171a:	eb400080 	cmpnei      	r0, 128
 801171e:	0c43      	bf      	0x80117a4	// 80117a4 <__pack_d+0xc0>
 8011720:	347f      	movi      	r4, 127
 8011722:	3500      	movi      	r5, 0
 8011724:	6489      	cmplt      	r2, r2
 8011726:	6091      	addc      	r2, r4
 8011728:	60d5      	addc      	r3, r5
 801172a:	c7805020 	bmaski      	r0, 29
 801172e:	64c0      	cmphs      	r0, r3
 8011730:	0c19      	bf      	0x8011762	// 8011762 <__pack_d+0x7e>
 8011732:	e58103fe 	addi      	r12, r1, 1023
 8011736:	4b28      	lsri      	r1, r3, 8
 8011738:	4398      	lsli      	r4, r3, 24
 801173a:	4a08      	lsri      	r0, r2, 8
 801173c:	c4015663 	zext      	r3, r1, 19, 0
 8011740:	6c4f      	mov      	r1, r3
 8011742:	6c10      	or      	r0, r4
 8011744:	e46c27ff 	andi      	r3, r12, 2047
 8011748:	0404      	br      	0x8011750	// 8011750 <__pack_d+0x6c>
 801174a:	3300      	movi      	r3, 0
 801174c:	3000      	movi      	r0, 0
 801174e:	3100      	movi      	r1, 0
 8011750:	3200      	movi      	r2, 0
 8011752:	c4415e60 	ins      	r2, r1, 19, 0
 8011756:	c4435d54 	ins      	r2, r3, 30, 20
 801175a:	c44d5c1f 	ins      	r2, r13, 31, 31
 801175e:	6c4b      	mov      	r1, r2
 8011760:	1485      	pop      	r4-r8
 8011762:	439f      	lsli      	r4, r3, 31
 8011764:	c422484c 	lsri      	r12, r2, 1
 8011768:	4b01      	lsri      	r0, r3, 1
 801176a:	c5842422 	or      	r2, r4, r12
 801176e:	6cc3      	mov      	r3, r0
 8011770:	e58103ff 	addi      	r12, r1, 1024
 8011774:	07e1      	br      	0x8011736	// 8011736 <__pack_d+0x52>
 8011776:	ea0307ff 	movi      	r3, 2047
 801177a:	3000      	movi      	r0, 0
 801177c:	3100      	movi      	r1, 0
 801177e:	07e9      	br      	0x8011750	// 8011750 <__pack_d+0x6c>
 8011780:	c703482c 	lsli      	r12, r3, 24
 8011784:	4a48      	lsri      	r2, r2, 8
 8011786:	c44c2420 	or      	r0, r12, r2
 801178a:	c5035741 	zext      	r1, r3, 26, 8
 801178e:	3200      	movi      	r2, 0
 8011790:	ea230008 	movih      	r3, 8
 8011794:	6c08      	or      	r0, r2
 8011796:	6c4c      	or      	r1, r3
 8011798:	c4015663 	zext      	r3, r1, 19, 0
 801179c:	6c4f      	mov      	r1, r3
 801179e:	ea0307ff 	movi      	r3, 2047
 80117a2:	07d7      	br      	0x8011750	// 8011750 <__pack_d+0x6c>
 80117a4:	e4022100 	andi      	r0, r2, 256
 80117a8:	e900ffc1 	bez      	r0, 0x801172a	// 801172a <__pack_d+0x46>
 80117ac:	3480      	movi      	r4, 128
 80117ae:	3500      	movi      	r5, 0
 80117b0:	6489      	cmplt      	r2, r2
 80117b2:	6091      	addc      	r2, r4
 80117b4:	60d5      	addc      	r3, r5
 80117b6:	07ba      	br      	0x801172a	// 801172a <__pack_d+0x46>
 80117b8:	5825      	subu      	r1, r0, r1
 80117ba:	eb210038 	cmplti      	r1, 57
 80117be:	0fc6      	bf      	0x801174a	// 801174a <__pack_d+0x66>
 80117c0:	341f      	movi      	r4, 31
 80117c2:	c423482c 	lsli      	r12, r3, 1
 80117c6:	6106      	subu      	r4, r1
 80117c8:	e401101f 	subi      	r0, r1, 32
 80117cc:	7310      	lsl      	r12, r4
 80117ce:	c4224046 	lsr      	r6, r2, r1
 80117d2:	38df      	btsti      	r0, 31
 80117d4:	c4034045 	lsr      	r5, r3, r0
 80117d8:	ea080000 	movi      	r8, 0
 80117dc:	6db0      	or      	r6, r12
 80117de:	ea0c0001 	movi      	r12, 1
 80117e2:	c4c50c20 	incf      	r6, r5, 0
 80117e6:	c40c4020 	lsl      	r0, r12, r0
 80117ea:	6d63      	mov      	r5, r8
 80117ec:	c42c4024 	lsl      	r4, r12, r1
 80117f0:	c4234047 	lsr      	r7, r3, r1
 80117f4:	c4a00c20 	incf      	r5, r0, 0
 80117f8:	c4880c20 	incf      	r4, r8, 0
 80117fc:	c4e80c20 	incf      	r7, r8, 0
 8011800:	3c40      	cmpnei      	r4, 0
 8011802:	c4a50c81 	decf      	r5, r5, 1
 8011806:	2c00      	subi      	r4, 1
 8011808:	6890      	and      	r2, r4
 801180a:	68d4      	and      	r3, r5
 801180c:	6c8c      	or      	r2, r3
 801180e:	3a40      	cmpnei      	r2, 0
 8011810:	c4000502 	mvc      	r2
 8011814:	6ce3      	mov      	r3, r8
 8011816:	6d88      	or      	r6, r2
 8011818:	6dcc      	or      	r7, r3
 801181a:	e46620ff 	andi      	r3, r6, 255
 801181e:	eb430080 	cmpnei      	r3, 128
 8011822:	0814      	bt      	0x801184a	// 801184a <__pack_d+0x166>
 8011824:	e4662100 	andi      	r3, r6, 256
 8011828:	e9230023 	bnez      	r3, 0x801186e	// 801186e <__pack_d+0x18a>
 801182c:	4758      	lsli      	r2, r7, 24
 801182e:	4f28      	lsri      	r1, r7, 8
 8011830:	4e08      	lsri      	r0, r6, 8
 8011832:	6c08      	or      	r0, r2
 8011834:	c4015662 	zext      	r2, r1, 19, 0
 8011838:	6c4b      	mov      	r1, r2
 801183a:	c7605022 	bmaski      	r2, 28
 801183e:	65c8      	cmphs      	r2, r7
 8011840:	0c02      	bf      	0x8011844	// 8011844 <__pack_d+0x160>
 8011842:	6f0f      	mov      	r12, r3
 8011844:	e46c2001 	andi      	r3, r12, 1
 8011848:	0784      	br      	0x8011750	// 8011750 <__pack_d+0x6c>
 801184a:	327f      	movi      	r2, 127
 801184c:	3300      	movi      	r3, 0
 801184e:	6599      	cmplt      	r6, r6
 8011850:	6189      	addc      	r6, r2
 8011852:	61cd      	addc      	r7, r3
 8011854:	4778      	lsli      	r3, r7, 24
 8011856:	4f28      	lsri      	r1, r7, 8
 8011858:	4e08      	lsri      	r0, r6, 8
 801185a:	6c0c      	or      	r0, r3
 801185c:	c4015663 	zext      	r3, r1, 19, 0
 8011860:	6c4f      	mov      	r1, r3
 8011862:	c7605023 	bmaski      	r3, 28
 8011866:	65cc      	cmphs      	r3, r7
 8011868:	0fee      	bf      	0x8011844	// 8011844 <__pack_d+0x160>
 801186a:	6f23      	mov      	r12, r8
 801186c:	07ec      	br      	0x8011844	// 8011844 <__pack_d+0x160>
 801186e:	3280      	movi      	r2, 128
 8011870:	07ee      	br      	0x801184c	// 801184c <__pack_d+0x168>
	...

08011874 <__unpack_d>:
 8011874:	1421      	subi      	r14, r14, 4
 8011876:	dd6e2000 	st.w      	r11, (r14, 0x0)
 801187a:	8863      	ld.h      	r3, (r0, 0x6)
 801187c:	8047      	ld.b      	r2, (r0, 0x7)
 801187e:	c48355c3 	zext      	r3, r3, 14, 4
 8011882:	d9802001 	ld.w      	r12, (r0, 0x4)
 8011886:	4a47      	lsri      	r2, r2, 7
 8011888:	d9a02000 	ld.w      	r13, (r0, 0x0)
 801188c:	c40c566c 	zext      	r12, r12, 19, 0
 8011890:	b141      	st.w      	r2, (r1, 0x4)
 8011892:	e9230025 	bnez      	r3, 0x80118dc	// 80118dc <__unpack_d+0x68>
 8011896:	c58d2423 	or      	r3, r13, r12
 801189a:	e903003c 	bez      	r3, 0x8011912	// 8011912 <__unpack_d+0x9e>
 801189e:	c70d4840 	lsri      	r0, r13, 24
 80118a2:	c50c4823 	lsli      	r3, r12, 8
 80118a6:	6cc0      	or      	r3, r0
 80118a8:	3003      	movi      	r0, 3
 80118aa:	c50d4822 	lsli      	r2, r13, 8
 80118ae:	b100      	st.w      	r0, (r1, 0x0)
 80118b0:	c760502d 	bmaski      	r13, 28
 80118b4:	ea0003fe 	movi      	r0, 1022
 80118b8:	6c02      	nor      	r0, r0
 80118ba:	6ecb      	mov      	r11, r2
 80118bc:	6f0f      	mov      	r12, r3
 80118be:	6489      	cmplt      	r2, r2
 80118c0:	60ad      	addc      	r2, r11
 80118c2:	60f1      	addc      	r3, r12
 80118c4:	64f4      	cmphs      	r13, r3
 80118c6:	6f03      	mov      	r12, r0
 80118c8:	2800      	subi      	r0, 1
 80118ca:	0bf8      	bt      	0x80118ba	// 80118ba <__unpack_d+0x46>
 80118cc:	dd812002 	st.w      	r12, (r1, 0x8)
 80118d0:	b143      	st.w      	r2, (r1, 0xc)
 80118d2:	b164      	st.w      	r3, (r1, 0x10)
 80118d4:	d96e2000 	ld.w      	r11, (r14, 0x0)
 80118d8:	1401      	addi      	r14, r14, 4
 80118da:	783c      	jmp      	r15
 80118dc:	eb4307ff 	cmpnei      	r3, 2047
 80118e0:	0c1f      	bf      	0x801191e	// 801191e <__unpack_d+0xaa>
 80118e2:	e46313fe 	subi      	r3, r3, 1023
 80118e6:	b162      	st.w      	r3, (r1, 0x8)
 80118e8:	3303      	movi      	r3, 3
 80118ea:	c70d4840 	lsri      	r0, r13, 24
 80118ee:	b160      	st.w      	r3, (r1, 0x0)
 80118f0:	c50c4823 	lsli      	r3, r12, 8
 80118f4:	c50d4822 	lsli      	r2, r13, 8
 80118f8:	6cc0      	or      	r3, r0
 80118fa:	ea0c0000 	movi      	r12, 0
 80118fe:	ea2d1000 	movih      	r13, 4096
 8011902:	6cb0      	or      	r2, r12
 8011904:	6cf4      	or      	r3, r13
 8011906:	b143      	st.w      	r2, (r1, 0xc)
 8011908:	b164      	st.w      	r3, (r1, 0x10)
 801190a:	d96e2000 	ld.w      	r11, (r14, 0x0)
 801190e:	1401      	addi      	r14, r14, 4
 8011910:	783c      	jmp      	r15
 8011912:	3302      	movi      	r3, 2
 8011914:	b160      	st.w      	r3, (r1, 0x0)
 8011916:	d96e2000 	ld.w      	r11, (r14, 0x0)
 801191a:	1401      	addi      	r14, r14, 4
 801191c:	783c      	jmp      	r15
 801191e:	c58d2423 	or      	r3, r13, r12
 8011922:	e9030018 	bez      	r3, 0x8011952	// 8011952 <__unpack_d+0xde>
 8011926:	ea230008 	movih      	r3, 8
 801192a:	68f0      	and      	r3, r12
 801192c:	3b40      	cmpnei      	r3, 0
 801192e:	3201      	movi      	r2, 1
 8011930:	c4620c40 	inct      	r3, r2, 0
 8011934:	b160      	st.w      	r3, (r1, 0x0)
 8011936:	c50c482c 	lsli      	r12, r12, 8
 801193a:	c70d4843 	lsri      	r3, r13, 24
 801193e:	6f0c      	or      	r12, r3
 8011940:	c50d482d 	lsli      	r13, r13, 8
 8011944:	c76c282c 	bclri      	r12, r12, 27
 8011948:	dda12003 	st.w      	r13, (r1, 0xc)
 801194c:	dd812004 	st.w      	r12, (r1, 0x10)
 8011950:	07dd      	br      	0x801190a	// 801190a <__unpack_d+0x96>
 8011952:	3304      	movi      	r3, 4
 8011954:	b160      	st.w      	r3, (r1, 0x0)
 8011956:	07da      	br      	0x801190a	// 801190a <__unpack_d+0x96>

08011958 <__fpcmp_parts_d>:
 8011958:	9040      	ld.w      	r2, (r0, 0x0)
 801195a:	3301      	movi      	r3, 1
 801195c:	648c      	cmphs      	r3, r2
 801195e:	0830      	bt      	0x80119be	// 80119be <__fpcmp_parts_d+0x66>
 8011960:	d9812000 	ld.w      	r12, (r1, 0x0)
 8011964:	670c      	cmphs      	r3, r12
 8011966:	082c      	bt      	0x80119be	// 80119be <__fpcmp_parts_d+0x66>
 8011968:	3a44      	cmpnei      	r2, 4
 801196a:	0c1f      	bf      	0x80119a8	// 80119a8 <__fpcmp_parts_d+0x50>
 801196c:	eb4c0004 	cmpnei      	r12, 4
 8011970:	0c14      	bf      	0x8011998	// 8011998 <__fpcmp_parts_d+0x40>
 8011972:	3a42      	cmpnei      	r2, 2
 8011974:	0c0f      	bf      	0x8011992	// 8011992 <__fpcmp_parts_d+0x3a>
 8011976:	eb4c0002 	cmpnei      	r12, 2
 801197a:	0c1a      	bf      	0x80119ae	// 80119ae <__fpcmp_parts_d+0x56>
 801197c:	9041      	ld.w      	r2, (r0, 0x4)
 801197e:	d9812001 	ld.w      	r12, (r1, 0x4)
 8011982:	670a      	cmpne      	r2, r12
 8011984:	0c1f      	bf      	0x80119c2	// 80119c2 <__fpcmp_parts_d+0x6a>
 8011986:	3000      	movi      	r0, 0
 8011988:	2800      	subi      	r0, 1
 801198a:	3a40      	cmpnei      	r2, 0
 801198c:	c4030c20 	incf      	r0, r3, 0
 8011990:	783c      	jmp      	r15
 8011992:	eb4c0002 	cmpnei      	r12, 2
 8011996:	0c2a      	bf      	0x80119ea	// 80119ea <__fpcmp_parts_d+0x92>
 8011998:	9141      	ld.w      	r2, (r1, 0x4)
 801199a:	3300      	movi      	r3, 0
 801199c:	2b00      	subi      	r3, 1
 801199e:	3a40      	cmpnei      	r2, 0
 80119a0:	3001      	movi      	r0, 1
 80119a2:	c4030c20 	incf      	r0, r3, 0
 80119a6:	783c      	jmp      	r15
 80119a8:	eb4c0004 	cmpnei      	r12, 4
 80119ac:	0c21      	bf      	0x80119ee	// 80119ee <__fpcmp_parts_d+0x96>
 80119ae:	9061      	ld.w      	r3, (r0, 0x4)
 80119b0:	3000      	movi      	r0, 0
 80119b2:	3b40      	cmpnei      	r3, 0
 80119b4:	2800      	subi      	r0, 1
 80119b6:	3301      	movi      	r3, 1
 80119b8:	c4030c20 	incf      	r0, r3, 0
 80119bc:	783c      	jmp      	r15
 80119be:	6c0f      	mov      	r0, r3
 80119c0:	783c      	jmp      	r15
 80119c2:	d9a02002 	ld.w      	r13, (r0, 0x8)
 80119c6:	d9812002 	ld.w      	r12, (r1, 0x8)
 80119ca:	6771      	cmplt      	r12, r13
 80119cc:	0bdd      	bt      	0x8011986	// 8011986 <__fpcmp_parts_d+0x2e>
 80119ce:	6735      	cmplt      	r13, r12
 80119d0:	0c13      	bf      	0x80119f6	// 80119f6 <__fpcmp_parts_d+0x9e>
 80119d2:	3000      	movi      	r0, 0
 80119d4:	2800      	subi      	r0, 1
 80119d6:	3a40      	cmpnei      	r2, 0
 80119d8:	c4030c40 	inct      	r0, r3, 0
 80119dc:	07da      	br      	0x8011990	// 8011990 <__fpcmp_parts_d+0x38>
 80119de:	644c      	cmphs      	r3, r1
 80119e0:	0fdd      	bf      	0x801199a	// 801199a <__fpcmp_parts_d+0x42>
 80119e2:	64c6      	cmpne      	r1, r3
 80119e4:	0803      	bt      	0x80119ea	// 80119ea <__fpcmp_parts_d+0x92>
 80119e6:	6430      	cmphs      	r12, r0
 80119e8:	0fd9      	bf      	0x801199a	// 801199a <__fpcmp_parts_d+0x42>
 80119ea:	3000      	movi      	r0, 0
 80119ec:	07d2      	br      	0x8011990	// 8011990 <__fpcmp_parts_d+0x38>
 80119ee:	9161      	ld.w      	r3, (r1, 0x4)
 80119f0:	9001      	ld.w      	r0, (r0, 0x4)
 80119f2:	5b01      	subu      	r0, r3, r0
 80119f4:	07ce      	br      	0x8011990	// 8011990 <__fpcmp_parts_d+0x38>
 80119f6:	9064      	ld.w      	r3, (r0, 0x10)
 80119f8:	d9802003 	ld.w      	r12, (r0, 0xc)
 80119fc:	9103      	ld.w      	r0, (r1, 0xc)
 80119fe:	9124      	ld.w      	r1, (r1, 0x10)
 8011a00:	64c4      	cmphs      	r1, r3
 8011a02:	0c05      	bf      	0x8011a0c	// 8011a0c <__fpcmp_parts_d+0xb4>
 8011a04:	644e      	cmpne      	r3, r1
 8011a06:	0bec      	bt      	0x80119de	// 80119de <__fpcmp_parts_d+0x86>
 8011a08:	6700      	cmphs      	r0, r12
 8011a0a:	0bea      	bt      	0x80119de	// 80119de <__fpcmp_parts_d+0x86>
 8011a0c:	3000      	movi      	r0, 0
 8011a0e:	2800      	subi      	r0, 1
 8011a10:	3a40      	cmpnei      	r2, 0
 8011a12:	3301      	movi      	r3, 1
 8011a14:	c4030c20 	incf      	r0, r3, 0
 8011a18:	07bc      	br      	0x8011990	// 8011990 <__fpcmp_parts_d+0x38>
	...

08011a1c <__pack_f>:
 8011a1c:	9040      	ld.w      	r2, (r0, 0x0)
 8011a1e:	3a01      	cmphsi      	r2, 2
 8011a20:	9063      	ld.w      	r3, (r0, 0xc)
 8011a22:	9021      	ld.w      	r1, (r0, 0x4)
 8011a24:	0c2b      	bf      	0x8011a7a	// 8011a7a <__pack_f+0x5e>
 8011a26:	3a44      	cmpnei      	r2, 4
 8011a28:	0c23      	bf      	0x8011a6e	// 8011a6e <__pack_f+0x52>
 8011a2a:	3a42      	cmpnei      	r2, 2
 8011a2c:	0c24      	bf      	0x8011a74	// 8011a74 <__pack_f+0x58>
 8011a2e:	e9030021 	bez      	r3, 0x8011a70	// 8011a70 <__pack_f+0x54>
 8011a32:	9042      	ld.w      	r2, (r0, 0x8)
 8011a34:	3000      	movi      	r0, 0
 8011a36:	287d      	subi      	r0, 126
 8011a38:	6409      	cmplt      	r2, r0
 8011a3a:	082f      	bt      	0x8011a98	// 8011a98 <__pack_f+0x7c>
 8011a3c:	eb22007f 	cmplti      	r2, 128
 8011a40:	0c17      	bf      	0x8011a6e	// 8011a6e <__pack_f+0x52>
 8011a42:	e403207f 	andi      	r0, r3, 127
 8011a46:	eb400040 	cmpnei      	r0, 64
 8011a4a:	0c1e      	bf      	0x8011a86	// 8011a86 <__pack_f+0x6a>
 8011a4c:	233e      	addi      	r3, 63
 8011a4e:	e9830022 	blz      	r3, 0x8011a92	// 8011a92 <__pack_f+0x76>
 8011a52:	227e      	addi      	r2, 127
 8011a54:	c4e357a0 	zext      	r0, r3, 29, 7
 8011a58:	74c8      	zextb      	r3, r2
 8011a5a:	3200      	movi      	r2, 0
 8011a5c:	c4405ec0 	ins      	r2, r0, 22, 0
 8011a60:	c4435cf7 	ins      	r2, r3, 30, 23
 8011a64:	c4415c1f 	ins      	r2, r1, 31, 31
 8011a68:	f4021b60 	fmtvrl      	fr0, r2
 8011a6c:	783c      	jmp      	r15
 8011a6e:	33ff      	movi      	r3, 255
 8011a70:	3000      	movi      	r0, 0
 8011a72:	07f4      	br      	0x8011a5a	// 8011a5a <__pack_f+0x3e>
 8011a74:	3300      	movi      	r3, 0
 8011a76:	6c0f      	mov      	r0, r3
 8011a78:	07f1      	br      	0x8011a5a	// 8011a5a <__pack_f+0x3e>
 8011a7a:	c4e35783 	zext      	r3, r3, 28, 7
 8011a7e:	c6c32840 	bseti      	r0, r3, 22
 8011a82:	33ff      	movi      	r3, 255
 8011a84:	07eb      	br      	0x8011a5a	// 8011a5a <__pack_f+0x3e>
 8011a86:	e4032080 	andi      	r0, r3, 128
 8011a8a:	e900ffe2 	bez      	r0, 0x8011a4e	// 8011a4e <__pack_f+0x32>
 8011a8e:	233f      	addi      	r3, 64
 8011a90:	07df      	br      	0x8011a4e	// 8011a4e <__pack_f+0x32>
 8011a92:	4b61      	lsri      	r3, r3, 1
 8011a94:	227f      	addi      	r2, 128
 8011a96:	07df      	br      	0x8011a54	// 8011a54 <__pack_f+0x38>
 8011a98:	5849      	subu      	r2, r0, r2
 8011a9a:	3a39      	cmplti      	r2, 26
 8011a9c:	0fec      	bf      	0x8011a74	// 8011a74 <__pack_f+0x58>
 8011a9e:	3001      	movi      	r0, 1
 8011aa0:	c443404c 	lsr      	r12, r3, r2
 8011aa4:	c4404022 	lsl      	r2, r0, r2
 8011aa8:	2a00      	subi      	r2, 1
 8011aaa:	68c8      	and      	r3, r2
 8011aac:	3b40      	cmpnei      	r3, 0
 8011aae:	c4000503 	mvc      	r3
 8011ab2:	6cf0      	or      	r3, r12
 8011ab4:	e443207f 	andi      	r2, r3, 127
 8011ab8:	eb420040 	cmpnei      	r2, 64
 8011abc:	080e      	bt      	0x8011ad8	// 8011ad8 <__pack_f+0xbc>
 8011abe:	e4432080 	andi      	r2, r3, 128
 8011ac2:	e9020003 	bez      	r2, 0x8011ac8	// 8011ac8 <__pack_f+0xac>
 8011ac6:	233f      	addi      	r3, 64
 8011ac8:	c7a05022 	bmaski      	r2, 30
 8011acc:	64c8      	cmphs      	r2, r3
 8011ace:	6483      	mvcv      	r2
 8011ad0:	c4e357a0 	zext      	r0, r3, 29, 7
 8011ad4:	74c8      	zextb      	r3, r2
 8011ad6:	07c2      	br      	0x8011a5a	// 8011a5a <__pack_f+0x3e>
 8011ad8:	233e      	addi      	r3, 63
 8011ada:	07f7      	br      	0x8011ac8	// 8011ac8 <__pack_f+0xac>

08011adc <__GI_putchar>:
 8011adc:	14d0      	push      	r15
 8011ade:	1063      	lrw      	r3, 0x20000120	// 8011ae8 <__GI_putchar+0xc>
 8011ae0:	9320      	ld.w      	r1, (r3, 0x0)
 8011ae2:	e000003f 	bsr      	0x8011b60	// 8011b60 <__GI_putc>
 8011ae6:	1490      	pop      	r15
 8011ae8:	20000120 	.long	0x20000120

08011aec <__GI_puts>:
 8011aec:	14d1      	push      	r4, r15
 8011aee:	1085      	lrw      	r4, 0x20000120	// 8011b00 <__GI_puts+0x14>
 8011af0:	9420      	ld.w      	r1, (r4, 0x0)
 8011af2:	e0000009 	bsr      	0x8011b04	// 8011b04 <__GI_fputs>
 8011af6:	9420      	ld.w      	r1, (r4, 0x0)
 8011af8:	300a      	movi      	r0, 10
 8011afa:	e00035eb 	bsr      	0x80186d0	// 80186d0 <fputc>
 8011afe:	1491      	pop      	r4, r15
 8011b00:	20000120 	.long	0x20000120

08011b04 <__GI_fputs>:
 8011b04:	14d5      	push      	r4-r8, r15
 8011b06:	6d03      	mov      	r4, r0
 8011b08:	6d87      	mov      	r6, r1
 8011b0a:	e9010018 	bez      	r1, 0x8011b3a	// 8011b3a <__GI_fputs+0x36>
 8011b0e:	e5010017 	addi      	r8, r1, 24
 8011b12:	6c23      	mov      	r0, r8
 8011b14:	e0000020 	bsr      	0x8011b54	// 8011b54 <__GI_os_critical_enter>
 8011b18:	8400      	ld.b      	r0, (r4, 0x0)
 8011b1a:	e9000014 	bez      	r0, 0x8011b42	// 8011b42 <__GI_fputs+0x3e>
 8011b1e:	3500      	movi      	r5, 0
 8011b20:	6dd7      	mov      	r7, r5
 8011b22:	2f00      	subi      	r7, 1
 8011b24:	0406      	br      	0x8011b30	// 8011b30 <__GI_fputs+0x2c>
 8011b26:	2400      	addi      	r4, 1
 8011b28:	8400      	ld.b      	r0, (r4, 0x0)
 8011b2a:	2500      	addi      	r5, 1
 8011b2c:	e900000c 	bez      	r0, 0x8011b44	// 8011b44 <__GI_fputs+0x40>
 8011b30:	6c5b      	mov      	r1, r6
 8011b32:	e00035cf 	bsr      	0x80186d0	// 80186d0 <fputc>
 8011b36:	65c2      	cmpne      	r0, r7
 8011b38:	0bf7      	bt      	0x8011b26	// 8011b26 <__GI_fputs+0x22>
 8011b3a:	3500      	movi      	r5, 0
 8011b3c:	2d00      	subi      	r5, 1
 8011b3e:	6c17      	mov      	r0, r5
 8011b40:	1495      	pop      	r4-r8, r15
 8011b42:	6d43      	mov      	r5, r0
 8011b44:	6c23      	mov      	r0, r8
 8011b46:	e0000009 	bsr      	0x8011b58	// 8011b58 <__GI_os_critical_exit>
 8011b4a:	6c17      	mov      	r0, r5
 8011b4c:	1495      	pop      	r4-r8, r15
	...

08011b50 <__GI_os_critical_open>:
 8011b50:	3000      	movi      	r0, 0
 8011b52:	783c      	jmp      	r15

08011b54 <__GI_os_critical_enter>:
 8011b54:	3000      	movi      	r0, 0
 8011b56:	783c      	jmp      	r15

08011b58 <__GI_os_critical_exit>:
 8011b58:	3000      	movi      	r0, 0
 8011b5a:	783c      	jmp      	r15

08011b5c <__GI_os_critical_close>:
 8011b5c:	3000      	movi      	r0, 0
 8011b5e:	783c      	jmp      	r15

08011b60 <__GI_putc>:
 8011b60:	14d0      	push      	r15
 8011b62:	e00035b7 	bsr      	0x80186d0	// 80186d0 <fputc>
 8011b66:	1490      	pop      	r15

08011b68 <HAL_GPIO_Init>:
    
    assert_param(IS_GPIO_ALL_INSTANCE(GPIOx));
    assert_param(IS_GPIO_PIN(GPIO_Init->Pin));
    assert_param(IS_GPIO_MODE(GPIO_Init->Mode));

    while (((GPIO_Init->Pin) >>  position) != 0x00)
 8011b68:	d9812000 	ld.w      	r12, (r1, 0x0)
 8011b6c:	e90c0044 	bez      	r12, 0x8011bf4	// 8011bf4 <HAL_GPIO_Init+0x8c>
 8011b70:	3200      	movi      	r2, 0
    {
        ioposition = (0x01 << position);
 8011b72:	ea140001 	movi      	r20, 1
            {
                    SET_BIT(GPIOx->PULLUP_EN, ioposition);
                    SET_BIT(GPIOx->PULLDOWN_EN, ioposition);
            }
            
            switch (GPIO_Init->Mode)
 8011b76:	ea96001f 	lrw      	r22, 0x8018924	// 8011bf0 <HAL_GPIO_Init+0x88>
 8011b7a:	0406      	br      	0x8011b86	// 8011b86 <HAL_GPIO_Init+0x1e>
            {
                SET_BIT(GPIOx->IE, ioposition);
            }
        }
        
        position++;
 8011b7c:	2200      	addi      	r2, 1
    while (((GPIO_Init->Pin) >>  position) != 0x00)
 8011b7e:	c44c4043 	lsr      	r3, r12, r2
 8011b82:	e9030039 	bez      	r3, 0x8011bf4	// 8011bf4 <HAL_GPIO_Init+0x8c>
        ioposition = (0x01 << position);
 8011b86:	c4544023 	lsl      	r3, r20, r2
        iocurrent = (uint32_t)(GPIO_Init->Pin) & ioposition;
 8011b8a:	c583202d 	and      	r13, r3, r12
        if (iocurrent == ioposition)
 8011b8e:	674e      	cmpne      	r3, r13
 8011b90:	0bf6      	bt      	0x8011b7c	// 8011b7c <HAL_GPIO_Init+0x14>
            switch (GPIO_Init->Mode)
 8011b92:	da612001 	ld.w      	r19, (r1, 0x4)
            __AFIO_REMAP_SET_OPT5(GPIOx, ioposition);
 8011b96:	da402004 	ld.w      	r18, (r0, 0x10)
 8011b9a:	c463248d 	nor      	r13, r3, r3
            switch (GPIO_Init->Mode)
 8011b9e:	eb530002 	cmpnei      	r19, 2
            __AFIO_REMAP_SET_OPT5(GPIOx, ioposition);
 8011ba2:	c5b22032 	and      	r18, r18, r13
 8011ba6:	de402004 	st.w      	r18, (r0, 0x10)
            switch (GPIO_Init->Mode)
 8011baa:	0c44      	bf      	0x8011c32	// 8011c32 <HAL_GPIO_Init+0xca>
 8011bac:	eb130002 	cmphsi      	r19, 3
 8011bb0:	0823      	bt      	0x8011bf6	// 8011bf6 <HAL_GPIO_Init+0x8e>
 8011bb2:	eb530001 	cmpnei      	r19, 1
 8011bb6:	08a3      	bt      	0x8011cfc	// 8011cfc <HAL_GPIO_Init+0x194>
 8011bb8:	ea120000 	movi      	r18, 0
 8011bbc:	e6521085 	subi      	r18, r18, 134
                    CLEAR_BIT(GPIOx->DIR, ioposition);
 8011bc0:	daa02002 	ld.w      	r21, (r0, 0x8)
 8011bc4:	c6ad2035 	and      	r21, r13, r21
 8011bc8:	dea02002 	st.w      	r21, (r0, 0x8)
            if (GPIO_Init->Pull == GPIO_NOPULL)
 8011bcc:	daa12002 	ld.w      	r21, (r1, 0x8)
 8011bd0:	eb550012 	cmpnei      	r21, 18
 8011bd4:	0c1b      	bf      	0x8011c0a	// 8011c0a <HAL_GPIO_Init+0xa2>
            else if (GPIO_Init->Pull == GPIO_PULLUP)
 8011bd6:	eb550013 	cmpnei      	r21, 19
 8011bda:	0c37      	bf      	0x8011c48	// 8011c48 <HAL_GPIO_Init+0xe0>
            else if(GPIO_Init->Pull == GPIO_PULLDOWN)
 8011bdc:	eb550014 	cmpnei      	r21, 20
 8011be0:	0c91      	bf      	0x8011d02	// 8011d02 <HAL_GPIO_Init+0x19a>
            switch (GPIO_Init->Mode)
 8011be2:	eb120004 	cmphsi      	r18, 5
 8011be6:	0821      	bt      	0x8011c28	// 8011c28 <HAL_GPIO_Init+0xc0>
 8011be8:	d2560892 	ldr.w      	r18, (r22, r18 << 2)
 8011bec:	e8d20000 	jmp      	r18
 8011bf0:	08018924 	.long	0x08018924
    }
}
 8011bf4:	783c      	jmp      	r15
            switch (GPIO_Init->Mode)
 8011bf6:	e6531086 	subi      	r18, r19, 135
 8011bfa:	eb120004 	cmphsi      	r18, 5
 8011bfe:	0fe1      	bf      	0x8011bc0	// 8011bc0 <HAL_GPIO_Init+0x58>
            if (GPIO_Init->Pull == GPIO_NOPULL)
 8011c00:	daa12002 	ld.w      	r21, (r1, 0x8)
 8011c04:	eb550012 	cmpnei      	r21, 18
 8011c08:	0be7      	bt      	0x8011bd6	// 8011bd6 <HAL_GPIO_Init+0x6e>
                    SET_BIT(GPIOx->PULLUP_EN, ioposition);
 8011c0a:	daa02003 	ld.w      	r21, (r0, 0xc)
 8011c0e:	c6a32435 	or      	r21, r3, r21
 8011c12:	dea02003 	st.w      	r21, (r0, 0xc)
                    CLEAR_BIT(GPIOx->PULLDOWN_EN, ioposition);
 8011c16:	daa02007 	ld.w      	r21, (r0, 0x1c)
            switch (GPIO_Init->Mode)
 8011c1a:	eb120004 	cmphsi      	r18, 5
                    CLEAR_BIT(GPIOx->PULLDOWN_EN, ioposition);
 8011c1e:	c6ad2035 	and      	r21, r13, r21
 8011c22:	dea02007 	st.w      	r21, (r0, 0x1c)
            switch (GPIO_Init->Mode)
 8011c26:	0fe1      	bf      	0x8011be8	// 8011be8 <HAL_GPIO_Init+0x80>
            if ((GPIO_Init->Mode & EXTI_MODE) == EXTI_MODE)
 8011c28:	e6732080 	andi      	r19, r19, 128
 8011c2c:	e913ffa8 	bez      	r19, 0x8011b7c	// 8011b7c <HAL_GPIO_Init+0x14>
 8011c30:	0423      	br      	0x8011c76	// 8011c76 <HAL_GPIO_Init+0x10e>
                    SET_BIT(GPIOx->DIR, ioposition);
 8011c32:	da402002 	ld.w      	r18, (r0, 0x8)
 8011c36:	c6432432 	or      	r18, r3, r18
 8011c3a:	de402002 	st.w      	r18, (r0, 0x8)
 8011c3e:	ea120000 	movi      	r18, 0
 8011c42:	e6521084 	subi      	r18, r18, 133
                    break;
 8011c46:	07c3      	br      	0x8011bcc	// 8011bcc <HAL_GPIO_Init+0x64>
                    CLEAR_BIT(GPIOx->PULLUP_EN, ioposition);
 8011c48:	daa02003 	ld.w      	r21, (r0, 0xc)
 8011c4c:	c6ad2035 	and      	r21, r13, r21
 8011c50:	dea02003 	st.w      	r21, (r0, 0xc)
                    CLEAR_BIT(GPIOx->PULLDOWN_EN, ioposition);
 8011c54:	daa02007 	ld.w      	r21, (r0, 0x1c)
 8011c58:	c6ad2035 	and      	r21, r13, r21
 8011c5c:	dea02007 	st.w      	r21, (r0, 0x1c)
 8011c60:	07c1      	br      	0x8011be2	// 8011be2 <HAL_GPIO_Init+0x7a>
                    SET_BIT(GPIOx->IS, ioposition);
 8011c62:	d9a02008 	ld.w      	r13, (r0, 0x20)
 8011c66:	6f4c      	or      	r13, r3
 8011c68:	dda02008 	st.w      	r13, (r0, 0x20)
                    SET_BIT(GPIOx->IEV, ioposition);
 8011c6c:	d9a0200a 	ld.w      	r13, (r0, 0x28)
 8011c70:	6f4c      	or      	r13, r3
 8011c72:	dda0200a 	st.w      	r13, (r0, 0x28)
                SET_BIT(GPIOx->IE, ioposition);
 8011c76:	d9a0200b 	ld.w      	r13, (r0, 0x2c)
 8011c7a:	6cf4      	or      	r3, r13
 8011c7c:	b06b      	st.w      	r3, (r0, 0x2c)
 8011c7e:	077f      	br      	0x8011b7c	// 8011b7c <HAL_GPIO_Init+0x14>
                    CLEAR_BIT(GPIOx->IS, ioposition);
 8011c80:	da402008 	ld.w      	r18, (r0, 0x20)
 8011c84:	c64d202d 	and      	r13, r13, r18
 8011c88:	dda02008 	st.w      	r13, (r0, 0x20)
                    SET_BIT(GPIOx->IBE, ioposition);
 8011c8c:	d9a02009 	ld.w      	r13, (r0, 0x24)
 8011c90:	6f4c      	or      	r13, r3
 8011c92:	dda02009 	st.w      	r13, (r0, 0x24)
                    break;
 8011c96:	07f0      	br      	0x8011c76	// 8011c76 <HAL_GPIO_Init+0x10e>
                    CLEAR_BIT(GPIOx->IS, ioposition);
 8011c98:	da402008 	ld.w      	r18, (r0, 0x20)
 8011c9c:	c64d2032 	and      	r18, r13, r18
 8011ca0:	de402008 	st.w      	r18, (r0, 0x20)
                    CLEAR_BIT(GPIOx->IBE, ioposition);
 8011ca4:	da402009 	ld.w      	r18, (r0, 0x24)
 8011ca8:	c64d2032 	and      	r18, r13, r18
 8011cac:	de402009 	st.w      	r18, (r0, 0x24)
                    CLEAR_BIT(GPIOx->IEV, ioposition);
 8011cb0:	da40200a 	ld.w      	r18, (r0, 0x28)
 8011cb4:	c64d202d 	and      	r13, r13, r18
 8011cb8:	dda0200a 	st.w      	r13, (r0, 0x28)
                    break;
 8011cbc:	07dd      	br      	0x8011c76	// 8011c76 <HAL_GPIO_Init+0x10e>
                    CLEAR_BIT(GPIOx->IS, ioposition);
 8011cbe:	da402008 	ld.w      	r18, (r0, 0x20)
 8011cc2:	c64d2032 	and      	r18, r13, r18
 8011cc6:	de402008 	st.w      	r18, (r0, 0x20)
                    CLEAR_BIT(GPIOx->IBE, ioposition);
 8011cca:	da402009 	ld.w      	r18, (r0, 0x24)
 8011cce:	c64d202d 	and      	r13, r13, r18
 8011cd2:	dda02009 	st.w      	r13, (r0, 0x24)
                    SET_BIT(GPIOx->IEV, ioposition);
 8011cd6:	d9a0200a 	ld.w      	r13, (r0, 0x28)
 8011cda:	6f4c      	or      	r13, r3
 8011cdc:	dda0200a 	st.w      	r13, (r0, 0x28)
                    break;
 8011ce0:	07cb      	br      	0x8011c76	// 8011c76 <HAL_GPIO_Init+0x10e>
                    SET_BIT(GPIOx->IS, ioposition);
 8011ce2:	da402008 	ld.w      	r18, (r0, 0x20)
 8011ce6:	c6432432 	or      	r18, r3, r18
 8011cea:	de402008 	st.w      	r18, (r0, 0x20)
                    CLEAR_BIT(GPIOx->IEV, ioposition);
 8011cee:	da40200a 	ld.w      	r18, (r0, 0x28)
 8011cf2:	c64d202d 	and      	r13, r13, r18
 8011cf6:	dda0200a 	st.w      	r13, (r0, 0x28)
                    break;
 8011cfa:	07be      	br      	0x8011c76	// 8011c76 <HAL_GPIO_Init+0x10e>
 8011cfc:	e6531086 	subi      	r18, r19, 135
 8011d00:	0766      	br      	0x8011bcc	// 8011bcc <HAL_GPIO_Init+0x64>
                    SET_BIT(GPIOx->PULLUP_EN, ioposition);
 8011d02:	daa02003 	ld.w      	r21, (r0, 0xc)
 8011d06:	c6a32435 	or      	r21, r3, r21
 8011d0a:	dea02003 	st.w      	r21, (r0, 0xc)
                    SET_BIT(GPIOx->PULLDOWN_EN, ioposition);
 8011d0e:	daa02007 	ld.w      	r21, (r0, 0x1c)
 8011d12:	c6a32435 	or      	r21, r3, r21
 8011d16:	dea02007 	st.w      	r21, (r0, 0x1c)
 8011d1a:	0764      	br      	0x8011be2	// 8011be2 <HAL_GPIO_Init+0x7a>

08011d1c <HAL_GPIO_WritePin>:
    uint32_t data_en;
    
    assert_param(IS_GPIO_PIN(GPIO_Pin));
    assert_param(IS_GPIO_PIN_ACTION(PinState));

    data_en = READ_REG(GPIOx->DATA_B_EN);
 8011d1c:	d9802001 	ld.w      	r12, (r0, 0x4)
    SET_BIT(GPIOx->DATA_B_EN, GPIO_Pin);
 8011d20:	9061      	ld.w      	r3, (r0, 0x4)
 8011d22:	6cc4      	or      	r3, r1
 8011d24:	b061      	st.w      	r3, (r0, 0x4)
    if (PinState != GPIO_PIN_RESET)
    {
        SET_BIT(GPIOx->DATA, GPIO_Pin);
 8011d26:	9060      	ld.w      	r3, (r0, 0x0)
    if (PinState != GPIO_PIN_RESET)
 8011d28:	e9220008 	bnez      	r2, 0x8011d38	// 8011d38 <HAL_GPIO_WritePin+0x1c>
    }
    else
    {
        CLEAR_BIT(GPIOx->DATA, GPIO_Pin);
 8011d2c:	c4232041 	andn      	r1, r3, r1
 8011d30:	b020      	st.w      	r1, (r0, 0x0)
    }
    WRITE_REG(GPIOx->DATA_B_EN, data_en);
 8011d32:	dd802001 	st.w      	r12, (r0, 0x4)
}
 8011d36:	783c      	jmp      	r15
        SET_BIT(GPIOx->DATA, GPIO_Pin);
 8011d38:	6c4c      	or      	r1, r3
 8011d3a:	b020      	st.w      	r1, (r0, 0x0)
    WRITE_REG(GPIOx->DATA_B_EN, data_en);
 8011d3c:	dd802001 	st.w      	r12, (r0, 0x4)
}
 8011d40:	783c      	jmp      	r15
	...

08011d44 <SystemClock_Get>:
 */
void SystemClock_Get(wm_sys_clk *sysclk)
{
    clk_div_reg clk_div;

    clk_div.w = READ_REG(RCC->CLK_DIV);
 8011d44:	ea234000 	movih      	r3, 16384
 8011d48:	e4630dff 	addi      	r3, r3, 3584
    sysclk->cpuclk = W806_PLL_CLK_MHZ/(clk_div.b.CPU);
 8011d4c:	ea0101e0 	movi      	r1, 480
    clk_div.w = READ_REG(RCC->CLK_DIV);
 8011d50:	9344      	ld.w      	r2, (r3, 0x10)
    sysclk->cpuclk = W806_PLL_CLK_MHZ/(clk_div.b.CPU);
 8011d52:	74c8      	zextb      	r3, r2
 8011d54:	c4618043 	divs      	r3, r1, r3
    sysclk->wlanclk = W806_PLL_CLK_MHZ/(clk_div.b.WLAN);
 8011d58:	c50255ec 	zext      	r12, r2, 15, 8
    sysclk->apbclk = sysclk->cpuclk / clk_div.b.BUS2;
 8011d5c:	c60256e2 	zext      	r2, r2, 23, 16
    sysclk->cpuclk = W806_PLL_CLK_MHZ/(clk_div.b.CPU);
 8011d60:	b061      	st.w      	r3, (r0, 0x4)
    sysclk->wlanclk = W806_PLL_CLK_MHZ/(clk_div.b.WLAN);
 8011d62:	c5818041 	divs      	r1, r1, r12
    sysclk->apbclk = sysclk->cpuclk / clk_div.b.BUS2;
 8011d66:	c4438023 	divu      	r3, r3, r2
    sysclk->wlanclk = W806_PLL_CLK_MHZ/(clk_div.b.WLAN);
 8011d6a:	b022      	st.w      	r1, (r0, 0x8)
    sysclk->apbclk = sysclk->cpuclk / clk_div.b.BUS2;
 8011d6c:	b060      	st.w      	r3, (r0, 0x0)
}
 8011d6e:	783c      	jmp      	r15

08011d70 <HAL_InitTick>:
    clk_div.w = READ_REG(RCC->CLK_DIV);
 8011d70:	ea234000 	movih      	r3, 16384
 8011d74:	e4630dff 	addi      	r3, r3, 3584


__attribute__((weak)) HAL_StatusTypeDef HAL_InitTick(uint32_t TickPriority)
{
 8011d78:	6f03      	mov      	r12, r0
    clk_div.w = READ_REG(RCC->CLK_DIV);
 8011d7a:	9364      	ld.w      	r3, (r3, 0x10)
    sysclk->cpuclk = W806_PLL_CLK_MHZ/(clk_div.b.CPU);
 8011d7c:	748c      	zextb      	r2, r3
 8011d7e:	ea0301e0 	movi      	r3, 480
 8011d82:	c4438043 	divs      	r3, r3, r2
    wm_sys_clk sysclk;
    
    SystemClock_Get(&sysclk);
    SysTick_Config(sysclk.cpuclk * UNIT_MHZ / uwTickFreq);
 8011d86:	ea02f424 	movi      	r2, 62500
 8011d8a:	c4824902 	rotli      	r2, r2, 4
 8011d8e:	7cc8      	mult      	r3, r2
 8011d90:	ea0203e8 	movi      	r2, 1000
 8011d94:	c4438023 	divu      	r3, r3, r2
{
    if ((ticks - 1UL) > CORET_LOAD_RELOAD_Msk) {
        return (1UL);                                                   /* Reload value impossible */
    }

    CORET->LOAD = (uint32_t)(ticks - 1UL);                              /* set reload register */
 8011d98:	104f      	lrw      	r2, 0xe000e010	// 8011dd4 <HAL_InitTick+0x64>
    if ((ticks - 1UL) > CORET_LOAD_RELOAD_Msk) {
 8011d9a:	2b00      	subi      	r3, 1
    CORET->LOAD = (uint32_t)(ticks - 1UL);                              /* set reload register */
 8011d9c:	b261      	st.w      	r3, (r2, 0x4)
    clk_div.w = READ_REG(RCC->CLK_DIV);
 8011d9e:	3000      	movi      	r0, 0
    CORET->VAL  = 0UL;                                                  /* Load the CORET Counter Value */
    CORET->CTRL = CORET_CTRL_CLKSOURCE_Msk |
 8011da0:	3307      	movi      	r3, 7
    CORET->VAL  = 0UL;                                                  /* Load the CORET Counter Value */
 8011da2:	b202      	st.w      	r0, (r2, 0x8)
    CORET->CTRL = CORET_CTRL_CLKSOURCE_Msk |
 8011da4:	b260      	st.w      	r3, (r2, 0x0)
    VIC->IPR[_IP_IDX(IRQn)] = ((uint32_t)(VIC->IPR[_IP_IDX(IRQn)]  & ~(0xFFUL << _BIT_SHIFT(IRQn))) |
 8011da6:	104d      	lrw      	r2, 0xe000e100	// 8011dd8 <HAL_InitTick+0x68>
                                 (((priority << (8U - __VIC_PRIO_BITS)) & (uint32_t)0xFFUL) << _BIT_SHIFT(IRQn)));
 8011da8:	c5cc4823 	lsli      	r3, r12, 14
    VIC->IPR[_IP_IDX(IRQn)] = ((uint32_t)(VIC->IPR[_IP_IDX(IRQn)]  & ~(0xFFUL << _BIT_SHIFT(IRQn))) |
 8011dac:	d82220c6 	ld.w      	r1, (r2, 0x318)
 8011db0:	ea0dff00 	movi      	r13, 65280
 8011db4:	6f76      	nor      	r13, r13
 8011db6:	6874      	and      	r1, r13
                                 (((priority << (8U - __VIC_PRIO_BITS)) & (uint32_t)0xFFUL) << _BIT_SHIFT(IRQn)));
 8011db8:	c40355e3 	zext      	r3, r3, 15, 0
    VIC->IPR[_IP_IDX(IRQn)] = ((uint32_t)(VIC->IPR[_IP_IDX(IRQn)]  & ~(0xFFUL << _BIT_SHIFT(IRQn))) |
 8011dbc:	6cc4      	or      	r3, r1
 8011dbe:	dc6220c6 	st.w      	r3, (r2, 0x318)
    VIC->ISER[_IR_IDX(IRQn)] = (uint32_t)(1UL << ((uint32_t)(int32_t)IRQn % 32));
 8011dc2:	ea230200 	movih      	r3, 512
 8011dc6:	b260      	st.w      	r3, (r2, 0x0)
    VIC->ISSR[_IR_IDX(IRQn)] = (uint32_t)(1UL << ((uint32_t)(int32_t)IRQn % 32));
 8011dc8:	dc622050 	st.w      	r3, (r2, 0x140)
    HAL_NVIC_SetPriority(SYS_TICK_IRQn, TickPriority);
    HAL_NVIC_EnableIRQ(SYS_TICK_IRQn);
    uwTickPrio = TickPriority;
 8011dcc:	1064      	lrw      	r3, 0x20001880	// 8011ddc <HAL_InitTick+0x6c>
 8011dce:	dd832000 	st.w      	r12, (r3, 0x0)
    return HAL_OK;
}
 8011dd2:	783c      	jmp      	r15
 8011dd4:	e000e010 	.long	0xe000e010
 8011dd8:	e000e100 	.long	0xe000e100
 8011ddc:	20001880 	.long	0x20001880

08011de0 <SystemClock_Config>:
{
 8011de0:	14d0      	push      	r15
    if ((clk < 2) || (clk > 240))
 8011de2:	5867      	subi      	r3, r0, 2
 8011de4:	eb0300ee 	cmphsi      	r3, 239
 8011de8:	0826      	bt      	0x8011e34	// 8011e34 <SystemClock_Config+0x54>
    RegValue = READ_REG(RCC->CLK_EN);
 8011dea:	ea224000 	movih      	r2, 16384
 8011dee:	e4420dff 	addi      	r2, r2, 3584
    RegValue &= ~0x3FFFFF;
 8011df2:	ea21ffc0 	movih      	r1, 65472
    RegValue = READ_REG(RCC->CLK_EN);
 8011df6:	9260      	ld.w      	r3, (r2, 0x0)
    RegValue &= ~0x3FFFFF;
 8011df8:	68c4      	and      	r3, r1
    RegValue |= 0x802;
 8011dfa:	ec630802 	ori      	r3, r3, 2050
    WRITE_REG(RCC->CLK_EN, RegValue);
 8011dfe:	b260      	st.w      	r3, (r2, 0x0)
    WRITE_REG(RCC->BBP_CLK, 0x0F);
 8011e00:	330f      	movi      	r3, 15
 8011e02:	b262      	st.w      	r3, (r2, 0x8)
    RegValue = READ_REG(RCC->CLK_DIV);
 8011e04:	9264      	ld.w      	r3, (r2, 0x10)
    RegValue &= 0xFF000000;
 8011e06:	ea22ff00 	movih      	r2, 65280
 8011e0a:	68c8      	and      	r3, r2
    if(cpuDiv > 12)
 8011e0c:	320c      	movi      	r2, 12
 8011e0e:	6408      	cmphs      	r2, r0
    RegValue |= 0x80000000;
 8011e10:	3bbf      	bseti      	r3, 31
    if(cpuDiv > 12)
 8011e12:	0c12      	bf      	0x8011e36	// 8011e36 <SystemClock_Config+0x56>
        bus2Fac = (wlanDiv*4/cpuDiv)&0xFF;
 8011e14:	c4028022 	divu      	r2, r2, r0
 8011e18:	4250      	lsli      	r2, r2, 16
 8011e1a:	ea010300 	movi      	r1, 768
 8011e1e:	6c0c      	or      	r0, r3
 8011e20:	6c08      	or      	r0, r2
    WRITE_REG(RCC->CLK_DIV, RegValue);
 8011e22:	ea234000 	movih      	r3, 16384
 8011e26:	e4630dff 	addi      	r3, r3, 3584
    RegValue |= (bus2Fac<<16) | (wlanDiv<<8) | cpuDiv;
 8011e2a:	6c04      	or      	r0, r1
    WRITE_REG(RCC->CLK_DIV, RegValue);
 8011e2c:	b304      	st.w      	r0, (r3, 0x10)
    HAL_InitTick(TICK_INT_PRIORITY);
 8011e2e:	3007      	movi      	r0, 7
 8011e30:	e3ffffa0 	bsr      	0x8011d70	// 8011d70 <HAL_InitTick>
}
 8011e34:	1490      	pop      	r15
        wlanDiv = cpuDiv/4;
 8011e36:	4822      	lsri      	r1, r0, 2
 8011e38:	4128      	lsli      	r1, r1, 8
 8011e3a:	ea220001 	movih      	r2, 1
 8011e3e:	07f0      	br      	0x8011e1e	// 8011e1e <SystemClock_Config+0x3e>

08011e40 <HAL_IncTick>:

__attribute__((weak)) void HAL_IncTick(void)
{
    uwTick += 1;
 8011e40:	1043      	lrw      	r2, 0x2000187c	// 8011e4c <HAL_IncTick+0xc>
 8011e42:	9260      	ld.w      	r3, (r2, 0x0)
 8011e44:	2300      	addi      	r3, 1
 8011e46:	b260      	st.w      	r3, (r2, 0x0)
}
 8011e48:	783c      	jmp      	r15
 8011e4a:	0000      	.short	0x0000
 8011e4c:	2000187c 	.long	0x2000187c

08011e50 <HAL_GetTick>:

__attribute__((weak)) uint32_t HAL_GetTick(void)
{
    return uwTick;
 8011e50:	1062      	lrw      	r3, 0x2000187c	// 8011e58 <HAL_GetTick+0x8>
 8011e52:	9300      	ld.w      	r0, (r3, 0x0)
}
 8011e54:	783c      	jmp      	r15
 8011e56:	0000      	.short	0x0000
 8011e58:	2000187c 	.long	0x2000187c

08011e5c <HAL_Delay>:

__attribute__((weak)) void HAL_Delay(uint32_t Delay)
{
 8011e5c:	14d2      	push      	r4-r5, r15
 8011e5e:	6d43      	mov      	r5, r0
    uint32_t tickstart = HAL_GetTick();
 8011e60:	e3fffff8 	bsr      	0x8011e50	// 8011e50 <HAL_GetTick>
 8011e64:	6d03      	mov      	r4, r0
    uint32_t wait = Delay;

    while ((HAL_GetTick() - tickstart) < wait)
 8011e66:	e3fffff5 	bsr      	0x8011e50	// 8011e50 <HAL_GetTick>
 8011e6a:	6012      	subu      	r0, r4
 8011e6c:	6540      	cmphs      	r0, r5
 8011e6e:	0ffc      	bf      	0x8011e66	// 8011e66 <HAL_Delay+0xa>
    {
    }
}
 8011e70:	1492      	pop      	r4-r5, r15
	...

08011e74 <HAL_NVIC_SetPriority>:

/* Priority: a value between 0 and 15
 * A lower priority value indicates a higher priority */
void HAL_NVIC_SetPriority(IRQn_Type IRQn, uint32_t Priority)
{   
 8011e74:	c4002822 	bclri      	r2, r0, 0
 8011e78:	3a81      	bclri      	r2, 1
 8011e7a:	106b      	lrw      	r3, 0xe000e100	// 8011ea4 <HAL_NVIC_SetPriority+0x30>
 8011e7c:	608c      	addu      	r2, r3
    VIC->IPR[_IP_IDX(IRQn)] = ((uint32_t)(VIC->IPR[_IP_IDX(IRQn)]  & ~(0xFFUL << _BIT_SHIFT(IRQn))) |
 8011e7e:	e4002003 	andi      	r0, r0, 3
 8011e82:	4003      	lsli      	r0, r0, 3
 8011e84:	33ff      	movi      	r3, 255
                                 (((priority << (8U - __VIC_PRIO_BITS)) & (uint32_t)0xFFUL) << _BIT_SHIFT(IRQn)));
 8011e86:	4126      	lsli      	r1, r1, 6
    VIC->IPR[_IP_IDX(IRQn)] = ((uint32_t)(VIC->IPR[_IP_IDX(IRQn)]  & ~(0xFFUL << _BIT_SHIFT(IRQn))) |
 8011e88:	d98220c0 	ld.w      	r12, (r2, 0x300)
 8011e8c:	70c0      	lsl      	r3, r0
                                 (((priority << (8U - __VIC_PRIO_BITS)) & (uint32_t)0xFFUL) << _BIT_SHIFT(IRQn)));
 8011e8e:	e42120ff 	andi      	r1, r1, 255
    VIC->IPR[_IP_IDX(IRQn)] = ((uint32_t)(VIC->IPR[_IP_IDX(IRQn)]  & ~(0xFFUL << _BIT_SHIFT(IRQn))) |
 8011e92:	c46c2043 	andn      	r3, r12, r3
                                 (((priority << (8U - __VIC_PRIO_BITS)) & (uint32_t)0xFFUL) << _BIT_SHIFT(IRQn)));
 8011e96:	c4014020 	lsl      	r0, r1, r0
    VIC->IPR[_IP_IDX(IRQn)] = ((uint32_t)(VIC->IPR[_IP_IDX(IRQn)]  & ~(0xFFUL << _BIT_SHIFT(IRQn))) |
 8011e9a:	6cc0      	or      	r3, r0
 8011e9c:	dc6220c0 	st.w      	r3, (r2, 0x300)
    NVIC_SetPriority(IRQn, Priority);
}
 8011ea0:	783c      	jmp      	r15
 8011ea2:	0000      	.short	0x0000
 8011ea4:	e000e100 	.long	0xe000e100

08011ea8 <HAL_NVIC_EnableIRQ>:
    VIC->ISER[_IR_IDX(IRQn)] = (uint32_t)(1UL << ((uint32_t)(int32_t)IRQn % 32));
 8011ea8:	e440201f 	andi      	r2, r0, 31
 8011eac:	3301      	movi      	r3, 1
 8011eae:	c4a054c0 	zext      	r0, r0, 6, 5
 8011eb2:	70c8      	lsl      	r3, r2
 8011eb4:	4002      	lsli      	r0, r0, 2
 8011eb6:	1044      	lrw      	r2, 0xe000e100	// 8011ec4 <HAL_NVIC_EnableIRQ+0x1c>
 8011eb8:	6008      	addu      	r0, r2
 8011eba:	b060      	st.w      	r3, (r0, 0x0)
    VIC->ISSR[_IR_IDX(IRQn)] = (uint32_t)(1UL << ((uint32_t)(int32_t)IRQn % 32));
 8011ebc:	dc602050 	st.w      	r3, (r0, 0x140)
    /* Check the parameters */
    assert_param(IS_NVIC_DEVICE_IRQ(IRQn));

    /* Enable interrupt */
    NVIC_EnableIRQ(IRQn);
}
 8011ec0:	783c      	jmp      	r15
 8011ec2:	0000      	.short	0x0000
 8011ec4:	e000e100 	.long	0xe000e100

08011ec8 <HAL_SPI_MspInit>:
 8011ec8:	783c      	jmp      	r15
	...

08011ecc <HAL_SPI_Init>:
  * @param  hspi pointer to a SPI_HandleTypeDef structure that contains
  *               the configuration information for SPI module.
  * @retval HAL status
  */
HAL_StatusTypeDef HAL_SPI_Init(SPI_HandleTypeDef *hspi)
{
 8011ecc:	14d1      	push      	r4, r15
 8011ece:	6d03      	mov      	r4, r0
    if (hspi == NULL)
 8011ed0:	e9000026 	bez      	r0, 0x8011f1c	// 8011f1c <HAL_SPI_Init+0x50>
    assert_param(IS_SPI_BAUDRATE_PRESCALER(hspi->Init.BaudRatePrescaler));
    assert_param(IS_SPI_CPOL(hspi->Init.CLKPolarity));
    assert_param(IS_SPI_CPHA(hspi->Init.CLKPhase));
    assert_param(IS_SPI_BIG_OR_LITTLE(hspi->Init.FirstByte));

    if (hspi->State == HAL_SPI_STATE_RESET)
 8011ed4:	9070      	ld.w      	r3, (r0, 0x40)
 8011ed6:	e903001f 	bez      	r3, 0x8011f14	// 8011f14 <HAL_SPI_Init+0x48>
    {
        hspi->Lock = HAL_UNLOCKED;
        HAL_SPI_MspInit(hspi);
    }
    hspi->State = HAL_SPI_STATE_BUSY;
 8011eda:	3302      	movi      	r3, 2
 8011edc:	b470      	st.w      	r3, (r4, 0x40)

    __HAL_SPI_DISABLE_TXRX(hspi);
 8011ede:	9460      	ld.w      	r3, (r4, 0x0)

    WRITE_REG(hspi->Instance->CH_CFG, (hspi->Init.NSS | SPI_CH_CFG_CLEARFIFOS));
    WRITE_REG(hspi->Instance->SPI_CFG, (hspi->Init.Mode | hspi->Init.CLKPolarity | hspi->Init.CLKPhase | hspi->Init.FirstByte));
 8011ee0:	9422      	ld.w      	r1, (r4, 0x8)
    __HAL_SPI_DISABLE_TXRX(hspi);
 8011ee2:	9340      	ld.w      	r2, (r3, 0x0)
 8011ee4:	3a93      	bclri      	r2, 19
 8011ee6:	3a94      	bclri      	r2, 20
 8011ee8:	b340      	st.w      	r2, (r3, 0x0)
    WRITE_REG(hspi->Instance->CH_CFG, (hspi->Init.NSS | SPI_CH_CFG_CLEARFIFOS));
 8011eea:	9444      	ld.w      	r2, (r4, 0x10)
 8011eec:	3ab6      	bseti      	r2, 22
 8011eee:	b340      	st.w      	r2, (r3, 0x0)
    WRITE_REG(hspi->Instance->SPI_CFG, (hspi->Init.Mode | hspi->Init.CLKPolarity | hspi->Init.CLKPhase | hspi->Init.FirstByte));
 8011ef0:	9441      	ld.w      	r2, (r4, 0x4)
 8011ef2:	6c84      	or      	r2, r1
 8011ef4:	9423      	ld.w      	r1, (r4, 0xc)
 8011ef6:	6c84      	or      	r2, r1
 8011ef8:	9426      	ld.w      	r1, (r4, 0x18)
 8011efa:	6c84      	or      	r2, r1
 8011efc:	b341      	st.w      	r2, (r3, 0x4)
    WRITE_REG(hspi->Instance->CLK_CFG, hspi->Init.BaudRatePrescaler);
 8011efe:	9445      	ld.w      	r2, (r4, 0x14)
 8011f00:	b342      	st.w      	r2, (r3, 0x8)

    __HAL_SPI_SET_CS_HIGH(hspi);
 8011f02:	9340      	ld.w      	r2, (r3, 0x0)
 8011f04:	ec420004 	ori      	r2, r2, 4
 8011f08:	b340      	st.w      	r2, (r3, 0x0)

    hspi->ErrorCode = HAL_SPI_ERROR_NONE;
 8011f0a:	3000      	movi      	r0, 0
    hspi->State     = HAL_SPI_STATE_READY;
 8011f0c:	3301      	movi      	r3, 1
    hspi->ErrorCode = HAL_SPI_ERROR_NONE;
 8011f0e:	b411      	st.w      	r0, (r4, 0x44)
    hspi->State     = HAL_SPI_STATE_READY;
 8011f10:	b470      	st.w      	r3, (r4, 0x40)

    return HAL_OK;
}
 8011f12:	1491      	pop      	r4, r15
        hspi->Lock = HAL_UNLOCKED;
 8011f14:	b06f      	st.w      	r3, (r0, 0x3c)
        HAL_SPI_MspInit(hspi);
 8011f16:	e3ffffd9 	bsr      	0x8011ec8	// 8011ec8 <HAL_SPI_MspInit>
 8011f1a:	07e0      	br      	0x8011eda	// 8011eda <HAL_SPI_Init+0xe>
        return HAL_ERROR;
 8011f1c:	3001      	movi      	r0, 1
}
 8011f1e:	1491      	pop      	r4, r15

08011f20 <HAL_SPI_Transmit>:
  * @param  Size amount of data to be sent
  * @param  Timeout Timeout duration
  * @retval HAL status
  */
HAL_StatusTypeDef HAL_SPI_Transmit(SPI_HandleTypeDef *hspi, const uint8_t *pData, uint32_t Size, uint32_t Timeout)
{
 8011f20:	ebe00058 	push      	r4-r11, r15, r16-r17
 8011f24:	6ecf      	mov      	r11, r3
    uint32_t tickstart, data = 0, i = 0;
    HAL_StatusTypeDef errorcode = HAL_OK;
    uint32_t fifo_count = 0, block_cnt = 0, tx_block_cnt = 0, tx_size = 0;
    
    __HAL_LOCK(hspi);
 8011f26:	906f      	ld.w      	r3, (r0, 0x3c)
 8011f28:	3b41      	cmpnei      	r3, 1
{
 8011f2a:	c4004830 	lsli      	r16, r0, 0
    __HAL_LOCK(hspi);
 8011f2e:	0804      	bt      	0x8011f36	// 8011f36 <HAL_SPI_Transmit+0x16>
 8011f30:	3002      	movi      	r0, 2
    __HAL_SPI_DISABLE_TX(hspi);
    hspi->State = HAL_SPI_STATE_READY;
    
    __HAL_UNLOCK(hspi);
    return errorcode;
}
 8011f32:	ebc00058 	pop      	r4-r11, r15, r16-r17
    __HAL_LOCK(hspi);
 8011f36:	3301      	movi      	r3, 1
 8011f38:	b06f      	st.w      	r3, (r0, 0x3c)
 8011f3a:	6d4b      	mov      	r5, r2
 8011f3c:	6d07      	mov      	r4, r1
    tickstart = HAL_GetTick();
 8011f3e:	e3ffff89 	bsr      	0x8011e50	// 8011e50 <HAL_GetTick>
    if (hspi->State != HAL_SPI_STATE_READY)
 8011f42:	d8702010 	ld.w      	r3, (r16, 0x40)
 8011f46:	3b41      	cmpnei      	r3, 1
    tickstart = HAL_GetTick();
 8011f48:	6dc3      	mov      	r7, r0
 8011f4a:	d9b02000 	ld.w      	r13, (r16, 0x0)
    if (hspi->State != HAL_SPI_STATE_READY)
 8011f4e:	6c53      	mov      	r1, r4
 8011f50:	6c97      	mov      	r2, r5
 8011f52:	0c0f      	bf      	0x8011f70	// 8011f70 <HAL_SPI_Transmit+0x50>
        errorcode = HAL_BUSY;
 8011f54:	3002      	movi      	r0, 2
    __HAL_SPI_DISABLE_TX(hspi);
 8011f56:	d86d2000 	ld.w      	r3, (r13, 0x0)
 8011f5a:	3b93      	bclri      	r3, 19
 8011f5c:	dc6d2000 	st.w      	r3, (r13, 0x0)
    hspi->State = HAL_SPI_STATE_READY;
 8011f60:	3301      	movi      	r3, 1
 8011f62:	dc702010 	st.w      	r3, (r16, 0x40)
    __HAL_UNLOCK(hspi);
 8011f66:	3300      	movi      	r3, 0
 8011f68:	dc70200f 	st.w      	r3, (r16, 0x3c)
}
 8011f6c:	ebc00058 	pop      	r4-r11, r15, r16-r17
    if ((pData == NULL) || (Size == 0U))
 8011f70:	e9040099 	bez      	r4, 0x80120a2	// 80120a2 <HAL_SPI_Transmit+0x182>
 8011f74:	e9050097 	bez      	r5, 0x80120a2	// 80120a2 <HAL_SPI_Transmit+0x182>
    __HAL_SPI_CLEAR_FIFO(hspi);
 8011f78:	d86d2000 	ld.w      	r3, (r13, 0x0)
 8011f7c:	3bb6      	bseti      	r3, 22
 8011f7e:	dc6d2000 	st.w      	r3, (r13, 0x0)
 8011f82:	ea230040 	movih      	r3, 64
 8011f86:	d88d2000 	ld.w      	r4, (r13, 0x0)
 8011f8a:	690c      	and      	r4, r3
 8011f8c:	e924fffd 	bnez      	r4, 0x8011f86	// 8011f86 <HAL_SPI_Transmit+0x66>
    __HAL_SPI_ENABLE_TX(hspi);
 8011f90:	d86d2000 	ld.w      	r3, (r13, 0x0)
 8011f94:	3bb3      	bseti      	r3, 19
 8011f96:	dc6d2000 	st.w      	r3, (r13, 0x0)
    hspi->State       = HAL_SPI_STATE_BUSY_TX;
 8011f9a:	3303      	movi      	r3, 3
 8011f9c:	dc702010 	st.w      	r3, (r16, 0x40)
    block_cnt = Size / BLOCK_SIZE;
 8011fa0:	ea031ff8 	movi      	r3, 8184
 8011fa4:	c4628029 	divu      	r9, r2, r3
            tx_size = Size % BLOCK_SIZE;
 8011fa8:	7ce4      	mult      	r3, r9
 8011faa:	5acd      	subu      	r6, r2, r3
    hspi->ErrorCode   = HAL_SPI_ERROR_NONE;
 8011fac:	dc902011 	st.w      	r4, (r16, 0x44)
    hspi->pRxBuffPtr  = (uint8_t *)NULL;
 8011fb0:	dc90200a 	st.w      	r4, (r16, 0x28)
    hspi->RxXferSize  = 0U;
 8011fb4:	dc90200b 	st.w      	r4, (r16, 0x2c)
    hspi->RxXferCount = 0U;
 8011fb8:	dc90200c 	st.w      	r4, (r16, 0x30)
 8011fbc:	c4c6482a 	lsli      	r10, r6, 6
 8011fc0:	6d47      	mov      	r5, r1
                for (i = 0; i < hspi->TxXferCount; i++)
 8011fc2:	ea110002 	movi      	r17, 2
        if (tx_block_cnt < block_cnt)
 8011fc6:	6650      	cmphs      	r4, r9
 8011fc8:	ea230008 	movih      	r3, 8
 8011fcc:	e46311ff 	subi      	r3, r3, 512
 8011fd0:	c46a0c40 	inct      	r3, r10, 0
 8011fd4:	6c8f      	mov      	r2, r3
 8011fd6:	6650      	cmphs      	r4, r9
 8011fd8:	ea031ff8 	movi      	r3, 8184
 8011fdc:	c4660c40 	inct      	r3, r6, 0
        hspi->TxXferCount = tx_size;
 8011fe0:	dc702009 	st.w      	r3, (r16, 0x24)
        hspi->TxXferSize  = tx_size;
 8011fe4:	dc702008 	st.w      	r3, (r16, 0x20)
        __HAL_SPI_SET_CLK_NUM(hspi, tx_size * 8);
 8011fe8:	ea01ffff 	movi      	r1, 65535
 8011fec:	c6614901 	rotli      	r1, r1, 19
 8011ff0:	d86d2000 	ld.w      	r3, (r13, 0x0)
 8011ff4:	68c4      	and      	r3, r1
 8011ff6:	6cc8      	or      	r3, r2
        hspi->pTxBuffPtr  = (uint8_t *)(pData + (tx_block_cnt * BLOCK_SIZE));
 8011ff8:	dcb02007 	st.w      	r5, (r16, 0x1c)
        __HAL_SPI_SET_CLK_NUM(hspi, tx_size * 8);
 8011ffc:	dc6d2000 	st.w      	r3, (r13, 0x0)
        __HAL_SPI_SET_START(hspi);
 8012000:	d86d2000 	ld.w      	r3, (r13, 0x0)
 8012004:	ec630001 	ori      	r3, r3, 1
 8012008:	dc6d2000 	st.w      	r3, (r13, 0x0)
            fifo_count = (32 - __HAL_SPI_GET_TXFIFO(hspi)) / 4;
 801200c:	ea080020 	movi      	r8, 32
        while (hspi->TxXferCount > 0U)
 8012010:	d8702009 	ld.w      	r3, (r16, 0x24)
 8012014:	e903005e 	bez      	r3, 0x80120d0	// 80120d0 <HAL_SPI_Transmit+0x1b0>
            fifo_count = (32 - __HAL_SPI_GET_TXFIFO(hspi)) / 4;
 8012018:	d98d2006 	ld.w      	r12, (r13, 0x18)
 801201c:	e58c203f 	andi      	r12, r12, 63
 8012020:	c588008c 	subu      	r12, r8, r12
 8012024:	c44c484c 	lsri      	r12, r12, 2
            while((fifo_count > 0) && (hspi->TxXferCount > 0))
 8012028:	e90c003f 	bez      	r12, 0x80120a6	// 80120a6 <HAL_SPI_Transmit+0x186>
 801202c:	d8702009 	ld.w      	r3, (r16, 0x24)
 8012030:	e903003b 	bez      	r3, 0x80120a6	// 80120a6 <HAL_SPI_Transmit+0x186>
 8012034:	d8702007 	ld.w      	r3, (r16, 0x1c)
 8012038:	042f      	br      	0x8012096	// 8012096 <HAL_SPI_Transmit+0x176>
                for (i = 0; i < hspi->TxXferCount; i++)
 801203a:	d8302009 	ld.w      	r1, (r16, 0x24)
 801203e:	3901      	cmphsi      	r1, 2
                    data |= (hspi->pTxBuffPtr[i] << ((i) * 8));
 8012040:	8340      	ld.b      	r2, (r3, 0x0)
                for (i = 0; i < hspi->TxXferCount; i++)
 8012042:	0c3f      	bf      	0x80120c0	// 80120c0 <HAL_SPI_Transmit+0x1a0>
                    data |= (hspi->pTxBuffPtr[i] << ((i) * 8));
 8012044:	8321      	ld.b      	r1, (r3, 0x1)
                for (i = 0; i < hspi->TxXferCount; i++)
 8012046:	d8102009 	ld.w      	r0, (r16, 0x24)
                    data |= (hspi->pTxBuffPtr[i] << ((i) * 8));
 801204a:	4128      	lsli      	r1, r1, 8
                for (i = 0; i < hspi->TxXferCount; i++)
 801204c:	c4110420 	cmphs      	r17, r0
                    data |= (hspi->pTxBuffPtr[i] << ((i) * 8));
 8012050:	6c48      	or      	r1, r2
 8012052:	7485      	zexth      	r2, r1
                for (i = 0; i < hspi->TxXferCount; i++)
 8012054:	0838      	bt      	0x80120c4	// 80120c4 <HAL_SPI_Transmit+0x1a4>
 8012056:	da502009 	ld.w      	r18, (r16, 0x24)
 801205a:	eb120003 	cmphsi      	r18, 4
                    data |= (hspi->pTxBuffPtr[i] << ((i) * 8));
 801205e:	8302      	ld.b      	r0, (r3, 0x2)
                for (i = 0; i < hspi->TxXferCount; i++)
 8012060:	0c34      	bf      	0x80120c8	// 80120c8 <HAL_SPI_Transmit+0x1a8>
                    data |= (hspi->pTxBuffPtr[i] << ((i) * 8));
 8012062:	4050      	lsli      	r2, r0, 16
 8012064:	6c48      	or      	r1, r2
 8012066:	8343      	ld.b      	r2, (r3, 0x3)
 8012068:	4258      	lsli      	r2, r2, 24
 801206a:	6c84      	or      	r2, r1
                for (i = 0; i < hspi->TxXferCount; i++)
 801206c:	3004      	movi      	r0, 4
 801206e:	d8302009 	ld.w      	r1, (r16, 0x24)
                hspi->TxXferCount -= i;
 8012072:	d8302009 	ld.w      	r1, (r16, 0x24)
                hspi->pTxBuffPtr += sizeof(uint8_t) * i;
 8012076:	60c0      	addu      	r3, r0
                hspi->TxXferCount -= i;
 8012078:	6042      	subu      	r1, r0
                    fifo_count--;
 801207a:	e58c1000 	subi      	r12, r12, 1
                hspi->pTxBuffPtr += sizeof(uint8_t) * i;
 801207e:	dc702007 	st.w      	r3, (r16, 0x1c)
                hspi->TxXferCount -= i;
 8012082:	dc302009 	st.w      	r1, (r16, 0x24)
                WRITE_REG(hspi->Instance->TXDATA, data );//<< 8
 8012086:	dc4d2008 	st.w      	r2, (r13, 0x20)
            while((fifo_count > 0) && (hspi->TxXferCount > 0))
 801208a:	e90c000e 	bez      	r12, 0x80120a6	// 80120a6 <HAL_SPI_Transmit+0x186>
 801208e:	d8502009 	ld.w      	r2, (r16, 0x24)
 8012092:	e902000a 	bez      	r2, 0x80120a6	// 80120a6 <HAL_SPI_Transmit+0x186>
                for (i = 0; i < hspi->TxXferCount; i++)
 8012096:	d8502009 	ld.w      	r2, (r16, 0x24)
 801209a:	e922ffd0 	bnez      	r2, 0x801203a	// 801203a <HAL_SPI_Transmit+0x11a>
 801209e:	6c0b      	mov      	r0, r2
 80120a0:	07e9      	br      	0x8012072	// 8012072 <HAL_SPI_Transmit+0x152>
        errorcode = HAL_ERROR;
 80120a2:	3001      	movi      	r0, 1
 80120a4:	0759      	br      	0x8011f56	// 8011f56 <HAL_SPI_Transmit+0x36>
            if ((((HAL_GetTick() - tickstart) >=  Timeout) && (Timeout != HAL_MAX_DELAY)) || (Timeout == 0U))
 80120a6:	e3fffed5 	bsr      	0x8011e50	// 8011e50 <HAL_GetTick>
 80120aa:	601e      	subu      	r0, r7
 80120ac:	66c0      	cmphs      	r0, r11
 80120ae:	d9b02000 	ld.w      	r13, (r16, 0x0)
 80120b2:	0faf      	bf      	0x8012010	// 8012010 <HAL_SPI_Transmit+0xf0>
 80120b4:	3300      	movi      	r3, 0
 80120b6:	2b00      	subi      	r3, 1
 80120b8:	64ee      	cmpne      	r11, r3
 80120ba:	0fab      	bf      	0x8012010	// 8012010 <HAL_SPI_Transmit+0xf0>
                errorcode = HAL_TIMEOUT;
 80120bc:	3003      	movi      	r0, 3
 80120be:	074c      	br      	0x8011f56	// 8011f56 <HAL_SPI_Transmit+0x36>
                for (i = 0; i < hspi->TxXferCount; i++)
 80120c0:	3001      	movi      	r0, 1
 80120c2:	07d8      	br      	0x8012072	// 8012072 <HAL_SPI_Transmit+0x152>
 80120c4:	3002      	movi      	r0, 2
 80120c6:	07d6      	br      	0x8012072	// 8012072 <HAL_SPI_Transmit+0x152>
                    data |= (hspi->pTxBuffPtr[i] << ((i) * 8));
 80120c8:	4010      	lsli      	r0, r0, 16
 80120ca:	6c80      	or      	r2, r0
                for (i = 0; i < hspi->TxXferCount; i++)
 80120cc:	3003      	movi      	r0, 3
 80120ce:	07d2      	br      	0x8012072	// 8012072 <HAL_SPI_Transmit+0x152>
 80120d0:	2b00      	subi      	r3, 1
 80120d2:	64ee      	cmpne      	r11, r3
 80120d4:	0c06      	bf      	0x80120e0	// 80120e0 <HAL_SPI_Transmit+0x1c0>
 80120d6:	0419      	br      	0x8012108	// 8012108 <HAL_SPI_Transmit+0x1e8>
            if ((((HAL_GetTick() - tickstart) >=  Timeout) && (Timeout != HAL_MAX_DELAY)) || (Timeout == 0U))
 80120d8:	e3fffebc 	bsr      	0x8011e50	// 8011e50 <HAL_GetTick>
 80120dc:	d9b02000 	ld.w      	r13, (r16, 0x0)
        while (__HAL_SPI_GET_FLAG(hspi, SPI_INT_SRC_DONE) != SPI_INT_SRC_DONE)
 80120e0:	d86d2005 	ld.w      	r3, (r13, 0x14)
 80120e4:	e4632040 	andi      	r3, r3, 64
 80120e8:	e903fff8 	bez      	r3, 0x80120d8	// 80120d8 <HAL_SPI_Transmit+0x1b8>
        __HAL_SPI_CLEAR_FLAG(hspi, SPI_INT_SRC_DONE);
 80120ec:	d86d2005 	ld.w      	r3, (r13, 0x14)
        tx_block_cnt++;
 80120f0:	2400      	addi      	r4, 1
        __HAL_SPI_CLEAR_FLAG(hspi, SPI_INT_SRC_DONE);
 80120f2:	ec630040 	ori      	r3, r3, 64
    while (tx_block_cnt <= block_cnt)
 80120f6:	6524      	cmphs      	r9, r4
        __HAL_SPI_CLEAR_FLAG(hspi, SPI_INT_SRC_DONE);
 80120f8:	dc6d2005 	st.w      	r3, (r13, 0x14)
 80120fc:	ea031ff8 	movi      	r3, 8184
 8012100:	614c      	addu      	r5, r3
    while (tx_block_cnt <= block_cnt)
 8012102:	0b62      	bt      	0x8011fc6	// 8011fc6 <HAL_SPI_Transmit+0xa6>
    HAL_StatusTypeDef errorcode = HAL_OK;
 8012104:	3000      	movi      	r0, 0
 8012106:	0728      	br      	0x8011f56	// 8011f56 <HAL_SPI_Transmit+0x36>
        while (__HAL_SPI_GET_FLAG(hspi, SPI_INT_SRC_DONE) != SPI_INT_SRC_DONE)
 8012108:	d86d2005 	ld.w      	r3, (r13, 0x14)
 801210c:	e4632040 	andi      	r3, r3, 64
 8012110:	e923ffee 	bnez      	r3, 0x80120ec	// 80120ec <HAL_SPI_Transmit+0x1cc>
            if ((((HAL_GetTick() - tickstart) >=  Timeout) && (Timeout != HAL_MAX_DELAY)) || (Timeout == 0U))
 8012114:	e3fffe9e 	bsr      	0x8011e50	// 8011e50 <HAL_GetTick>
 8012118:	601e      	subu      	r0, r7
 801211a:	66c0      	cmphs      	r0, r11
 801211c:	d9b02000 	ld.w      	r13, (r16, 0x0)
 8012120:	0ff4      	bf      	0x8012108	// 8012108 <HAL_SPI_Transmit+0x1e8>
 8012122:	07cd      	br      	0x80120bc	// 80120bc <HAL_SPI_Transmit+0x19c>

08012124 <HAL_I2C_MspInit>:
 8012124:	783c      	jmp      	r15
	...

08012128 <HAL_I2C_Init>:
#define I2C_FREQ_MAX            (1000000)
#define I2C_FREQ_MIN            (100000)


HAL_StatusTypeDef HAL_I2C_Init(I2C_HandleTypeDef *hi2c)
{
 8012128:	14d1      	push      	r4, r15
 801212a:	1423      	subi      	r14, r14, 12
 801212c:	6d03      	mov      	r4, r0
    if (hi2c == NULL)
 801212e:	e900003a 	bez      	r0, 0x80121a2	// 80121a2 <HAL_I2C_Init+0x7a>
    {
        return HAL_ERROR;
    }

    hi2c->Lock = HAL_UNLOCKED;
 8012132:	3300      	movi      	r3, 0
 8012134:	b062      	st.w      	r3, (r0, 0x8)
    HAL_I2C_MspInit(hi2c);
 8012136:	e3fffff7 	bsr      	0x8012124	// 8012124 <HAL_I2C_MspInit>

    wm_sys_clk sysclk;
    uint32_t div = 0;
    if (hi2c->Frequency < I2C_FREQ_MIN)
 801213a:	9461      	ld.w      	r3, (r4, 0x4)
 801213c:	ea02869f 	movi      	r2, 34463
 8012140:	3ab0      	bseti      	r2, 16
 8012142:	64c8      	cmphs      	r2, r3
 8012144:	0c27      	bf      	0x8012192	// 8012192 <HAL_I2C_Init+0x6a>
    {
        hi2c->Frequency = I2C_FREQ_MIN;
 8012146:	ea0386a0 	movi      	r3, 34464
 801214a:	3bb0      	bseti      	r3, 16
 801214c:	b461      	st.w      	r3, (r4, 0x4)
    }
    else if (hi2c->Frequency > I2C_FREQ_MAX)
    {
        hi2c->Frequency = I2C_FREQ_MAX;
    }
    SystemClock_Get(&sysclk);
 801214e:	6c3b      	mov      	r0, r14
 8012150:	e3fffdfa 	bsr      	0x8011d44	// 8011d44 <SystemClock_Get>
    div = (sysclk.apbclk * 1000000) / (5 * hi2c->Frequency) - 1;
 8012154:	9860      	ld.w      	r3, (r14, 0x0)
 8012156:	ea02f424 	movi      	r2, 62500
 801215a:	c4824902 	rotli      	r2, r2, 4
 801215e:	7cc8      	mult      	r3, r2
 8012160:	3105      	movi      	r1, 5
 8012162:	9441      	ld.w      	r2, (r4, 0x4)
 8012164:	7c84      	mult      	r2, r1
 8012166:	c4438023 	divu      	r3, r3, r2
 801216a:	2b00      	subi      	r3, 1
    WRITE_REG(hi2c->Instance->PRESCALE_L, div & 0xff);
 801216c:	9440      	ld.w      	r2, (r4, 0x0)
 801216e:	e42320ff 	andi      	r1, r3, 255
    WRITE_REG(hi2c->Instance->PRESCALE_H, (div >> 8) & 0xff);
 8012172:	c50355e3 	zext      	r3, r3, 15, 8
    WRITE_REG(hi2c->Instance->PRESCALE_L, div & 0xff);
 8012176:	b220      	st.w      	r1, (r2, 0x0)
    WRITE_REG(hi2c->Instance->PRESCALE_H, (div >> 8) & 0xff);
 8012178:	b261      	st.w      	r3, (r2, 0x4)
    WRITE_REG(hi2c->Instance->EN, I2C_EN_ENABLE | I2C_EN_IEMASK);
 801217a:	33c0      	movi      	r3, 192
 801217c:	b262      	st.w      	r3, (r2, 0x8)
    HAL_NVIC_SetPriority(I2C_IRQn, 0);
 801217e:	3100      	movi      	r1, 0
 8012180:	300a      	movi      	r0, 10
 8012182:	e3fffe79 	bsr      	0x8011e74	// 8011e74 <HAL_NVIC_SetPriority>
    HAL_NVIC_EnableIRQ(I2C_IRQn);
 8012186:	300a      	movi      	r0, 10
 8012188:	e3fffe90 	bsr      	0x8011ea8	// 8011ea8 <HAL_NVIC_EnableIRQ>
    return HAL_OK;
 801218c:	3000      	movi      	r0, 0
}
 801218e:	1403      	addi      	r14, r14, 12
 8012190:	1491      	pop      	r4, r15
    else if (hi2c->Frequency > I2C_FREQ_MAX)
 8012192:	ea02f424 	movi      	r2, 62500
 8012196:	c4824902 	rotli      	r2, r2, 4
 801219a:	64c8      	cmphs      	r2, r3
 801219c:	0bd9      	bt      	0x801214e	// 801214e <HAL_I2C_Init+0x26>
        hi2c->Frequency = I2C_FREQ_MAX;
 801219e:	b441      	st.w      	r2, (r4, 0x4)
 80121a0:	07d7      	br      	0x801214e	// 801214e <HAL_I2C_Init+0x26>
        return HAL_ERROR;
 80121a2:	3001      	movi      	r0, 1
}
 80121a4:	1403      	addi      	r14, r14, 12
 80121a6:	1491      	pop      	r4, r15

080121a8 <HAL_I2C_Write>:
    while(READ_BIT(hi2c->Instance->CR_SR, I2C_SR_TIP));
    return READ_REG(hi2c->Instance->DATA);
}

HAL_StatusTypeDef HAL_I2C_Write(I2C_HandleTypeDef *hi2c, uint8_t DevAddress, uint8_t MemAddress, uint8_t *pData, uint16_t Size)
{
 80121a8:	14d1      	push      	r4, r15
    WRITE_REG(hi2c->Instance->DATA, dat);
 80121aa:	d9802000 	ld.w      	r12, (r0, 0x0)
 80121ae:	e42120fe 	andi      	r1, r1, 254
 80121b2:	dc2c2003 	st.w      	r1, (r12, 0xc)
        WRITE_REG(hi2c->Instance->CR_SR, I2C_CR_START | I2C_CR_WR);
 80121b6:	3190      	movi      	r1, 144
{
 80121b8:	6d03      	mov      	r4, r0
 80121ba:	d9ae1004 	ld.h      	r13, (r14, 0x8)
        WRITE_REG(hi2c->Instance->CR_SR, I2C_CR_START | I2C_CR_WR);
 80121be:	dc2c2004 	st.w      	r1, (r12, 0x10)
    while(READ_BIT(hi2c->Instance->CR_SR, I2C_SR_TIP));
 80121c2:	d82c2004 	ld.w      	r1, (r12, 0x10)
 80121c6:	e4212002 	andi      	r1, r1, 2
 80121ca:	e921fffc 	bnez      	r1, 0x80121c2	// 80121c2 <HAL_I2C_Write+0x1a>
    while(READ_BIT(hi2c->Instance->CR_SR, I2C_SR_TIP));
 80121ce:	d82c2004 	ld.w      	r1, (r12, 0x10)
 80121d2:	e4212002 	andi      	r1, r1, 2
 80121d6:	e921fffc 	bnez      	r1, 0x80121ce	// 80121ce <HAL_I2C_Write+0x26>
 80121da:	ea000201 	movi      	r0, 513
    while(READ_BIT(hi2c->Instance->CR_SR, I2C_SR_RXACK))
 80121de:	d82c2004 	ld.w      	r1, (r12, 0x10)
 80121e2:	e4212080 	andi      	r1, r1, 128
 80121e6:	e901001d 	bez      	r1, 0x8012220	// 8012220 <HAL_I2C_Write+0x78>
 80121ea:	e820fffa 	bnezad      	r0, 0x80121de	// 80121de <HAL_I2C_Write+0x36>
            printf("i2c ack error");
 80121ee:	111d      	lrw      	r0, 0x8018938	// 80122e0 <HAL_I2C_Write+0x138>
 80121f0:	e000327e 	bsr      	0x80186ec	// 80186ec <wm_printf>
    WRITE_REG(hi2c->Instance->CR_SR, I2C_CR_STOP);
 80121f4:	d9842000 	ld.w      	r12, (r4, 0x0)
 80121f8:	3340      	movi      	r3, 64
 80121fa:	dc6c2004 	st.w      	r3, (r12, 0x10)
    while(READ_BIT(hi2c->Instance->CR_SR, I2C_SR_TIP));
 80121fe:	d86c2004 	ld.w      	r3, (r12, 0x10)
 8012202:	e4632002 	andi      	r3, r3, 2
 8012206:	e923fffc 	bnez      	r3, 0x80121fe	// 80121fe <HAL_I2C_Write+0x56>
    uint32_t i, ret = HAL_ERROR;
 801220a:	3001      	movi      	r0, 1
    WRITE_REG(hi2c->Instance->CR_SR, I2C_CR_STOP);
 801220c:	3340      	movi      	r3, 64
 801220e:	dc6c2004 	st.w      	r3, (r12, 0x10)
    while(READ_BIT(hi2c->Instance->CR_SR, I2C_SR_TIP));
 8012212:	d86c2004 	ld.w      	r3, (r12, 0x10)
 8012216:	e4632002 	andi      	r3, r3, 2
 801221a:	e923fffc 	bnez      	r3, 0x8012212	// 8012212 <HAL_I2C_Write+0x6a>
    }
    ret = HAL_OK;
OUT:
    HAL_I2C_Stop(hi2c);
    return ret;
}
 801221e:	1491      	pop      	r4, r15
    WRITE_REG(hi2c->Instance->DATA, dat);
 8012220:	dc4c2003 	st.w      	r2, (r12, 0xc)
        WRITE_REG(hi2c->Instance->CR_SR, I2C_CR_WR);
 8012224:	3210      	movi      	r2, 16
 8012226:	dc4c2004 	st.w      	r2, (r12, 0x10)
    while(READ_BIT(hi2c->Instance->CR_SR, I2C_SR_TIP));
 801222a:	d84c2004 	ld.w      	r2, (r12, 0x10)
 801222e:	e4422002 	andi      	r2, r2, 2
 8012232:	e922fffc 	bnez      	r2, 0x801222a	// 801222a <HAL_I2C_Write+0x82>
    while(READ_BIT(hi2c->Instance->CR_SR, I2C_SR_TIP));
 8012236:	d84c2004 	ld.w      	r2, (r12, 0x10)
 801223a:	e4422002 	andi      	r2, r2, 2
 801223e:	e922fffc 	bnez      	r2, 0x8012236	// 8012236 <HAL_I2C_Write+0x8e>
 8012242:	ea010201 	movi      	r1, 513
    while(READ_BIT(hi2c->Instance->CR_SR, I2C_SR_RXACK))
 8012246:	d84c2004 	ld.w      	r2, (r12, 0x10)
 801224a:	e4422080 	andi      	r2, r2, 128
 801224e:	e9020013 	bez      	r2, 0x8012274	// 8012274 <HAL_I2C_Write+0xcc>
 8012252:	e821fffa 	bnezad      	r1, 0x8012246	// 8012246 <HAL_I2C_Write+0x9e>
            printf("i2c ack error");
 8012256:	1103      	lrw      	r0, 0x8018938	// 80122e0 <HAL_I2C_Write+0x138>
 8012258:	e000324a 	bsr      	0x80186ec	// 80186ec <wm_printf>
    WRITE_REG(hi2c->Instance->CR_SR, I2C_CR_STOP);
 801225c:	d9842000 	ld.w      	r12, (r4, 0x0)
 8012260:	3340      	movi      	r3, 64
 8012262:	dc6c2004 	st.w      	r3, (r12, 0x10)
    while(READ_BIT(hi2c->Instance->CR_SR, I2C_SR_TIP));
 8012266:	d86c2004 	ld.w      	r3, (r12, 0x10)
 801226a:	e4632002 	andi      	r3, r3, 2
 801226e:	e923fffc 	bnez      	r3, 0x8012266	// 8012266 <HAL_I2C_Write+0xbe>
 8012272:	07cc      	br      	0x801220a	// 801220a <HAL_I2C_Write+0x62>
    for (i = 0; i < Size; i++)
 8012274:	6c37      	mov      	r0, r13
 8012276:	e90dffcb 	bez      	r13, 0x801220c	// 801220c <HAL_I2C_Write+0x64>
 801227a:	c5a30021 	addu      	r1, r3, r13
        WRITE_REG(hi2c->Instance->CR_SR, I2C_CR_WR);
 801227e:	ea0d0010 	movi      	r13, 16
    WRITE_REG(hi2c->Instance->DATA, dat);
 8012282:	8340      	ld.b      	r2, (r3, 0x0)
 8012284:	dc4c2003 	st.w      	r2, (r12, 0xc)
        WRITE_REG(hi2c->Instance->CR_SR, I2C_CR_WR);
 8012288:	ddac2004 	st.w      	r13, (r12, 0x10)
    while(READ_BIT(hi2c->Instance->CR_SR, I2C_SR_TIP));
 801228c:	d84c2004 	ld.w      	r2, (r12, 0x10)
 8012290:	e4422002 	andi      	r2, r2, 2
 8012294:	e922fffc 	bnez      	r2, 0x801228c	// 801228c <HAL_I2C_Write+0xe4>
    while(READ_BIT(hi2c->Instance->CR_SR, I2C_SR_TIP));
 8012298:	d84c2004 	ld.w      	r2, (r12, 0x10)
 801229c:	e4422002 	andi      	r2, r2, 2
 80122a0:	e922fffc 	bnez      	r2, 0x8012298	// 8012298 <HAL_I2C_Write+0xf0>
 80122a4:	ea020201 	movi      	r2, 513
    while(READ_BIT(hi2c->Instance->CR_SR, I2C_SR_RXACK))
 80122a8:	d80c2004 	ld.w      	r0, (r12, 0x10)
 80122ac:	e4002080 	andi      	r0, r0, 128
 80122b0:	e9000013 	bez      	r0, 0x80122d6	// 80122d6 <HAL_I2C_Write+0x12e>
 80122b4:	e822fffa 	bnezad      	r2, 0x80122a8	// 80122a8 <HAL_I2C_Write+0x100>
            printf("i2c ack error");
 80122b8:	100a      	lrw      	r0, 0x8018938	// 80122e0 <HAL_I2C_Write+0x138>
 80122ba:	e0003219 	bsr      	0x80186ec	// 80186ec <wm_printf>
    WRITE_REG(hi2c->Instance->CR_SR, I2C_CR_STOP);
 80122be:	d9842000 	ld.w      	r12, (r4, 0x0)
 80122c2:	3340      	movi      	r3, 64
 80122c4:	dc6c2004 	st.w      	r3, (r12, 0x10)
    while(READ_BIT(hi2c->Instance->CR_SR, I2C_SR_TIP));
 80122c8:	d86c2004 	ld.w      	r3, (r12, 0x10)
 80122cc:	e4632002 	andi      	r3, r3, 2
 80122d0:	e923fffc 	bnez      	r3, 0x80122c8	// 80122c8 <HAL_I2C_Write+0x120>
 80122d4:	079b      	br      	0x801220a	// 801220a <HAL_I2C_Write+0x62>
 80122d6:	2300      	addi      	r3, 1
    for (i = 0; i < Size; i++)
 80122d8:	64c6      	cmpne      	r1, r3
 80122da:	0bd4      	bt      	0x8012282	// 8012282 <HAL_I2C_Write+0xda>
 80122dc:	0798      	br      	0x801220c	// 801220c <HAL_I2C_Write+0x64>
 80122de:	0000      	.short	0x0000
 80122e0:	08018938 	.long	0x08018938

080122e4 <HAL_I2C_Read>:

HAL_StatusTypeDef HAL_I2C_Read(I2C_HandleTypeDef *hi2c, uint8_t DevAddress, uint8_t MemAddress, uint8_t *pData, uint16_t Size)
{
 80122e4:	14d1      	push      	r4, r15
    WRITE_REG(hi2c->Instance->DATA, dat);
 80122e6:	d9802000 	ld.w      	r12, (r0, 0x0)
 80122ea:	ec210001 	ori      	r1, r1, 1
        WRITE_REG(hi2c->Instance->CR_SR, I2C_CR_START | I2C_CR_WR);
 80122ee:	3290      	movi      	r2, 144
    WRITE_REG(hi2c->Instance->DATA, dat);
 80122f0:	dc2c2003 	st.w      	r1, (r12, 0xc)
{
 80122f4:	6d03      	mov      	r4, r0
 80122f6:	d9ae1004 	ld.h      	r13, (r14, 0x8)
        WRITE_REG(hi2c->Instance->CR_SR, I2C_CR_START | I2C_CR_WR);
 80122fa:	dc4c2004 	st.w      	r2, (r12, 0x10)
    while(READ_BIT(hi2c->Instance->CR_SR, I2C_SR_TIP));
 80122fe:	d84c2004 	ld.w      	r2, (r12, 0x10)
 8012302:	e4422002 	andi      	r2, r2, 2
 8012306:	e922fffc 	bnez      	r2, 0x80122fe	// 80122fe <HAL_I2C_Read+0x1a>
    while(READ_BIT(hi2c->Instance->CR_SR, I2C_SR_TIP));
 801230a:	d84c2004 	ld.w      	r2, (r12, 0x10)
 801230e:	e4422002 	andi      	r2, r2, 2
 8012312:	e922fffc 	bnez      	r2, 0x801230a	// 801230a <HAL_I2C_Read+0x26>
 8012316:	ea010201 	movi      	r1, 513
    while(READ_BIT(hi2c->Instance->CR_SR, I2C_SR_RXACK))
 801231a:	d84c2004 	ld.w      	r2, (r12, 0x10)
 801231e:	e4422080 	andi      	r2, r2, 128
 8012322:	e902001d 	bez      	r2, 0x801235c	// 801235c <HAL_I2C_Read+0x78>
 8012326:	e821fffa 	bnezad      	r1, 0x801231a	// 801231a <HAL_I2C_Read+0x36>
            printf("i2c ack error");
 801232a:	1101      	lrw      	r0, 0x8018938	// 80123ac <HAL_I2C_Read+0xc8>
 801232c:	e00031e0 	bsr      	0x80186ec	// 80186ec <wm_printf>
    WRITE_REG(hi2c->Instance->CR_SR, I2C_CR_STOP);
 8012330:	d9842000 	ld.w      	r12, (r4, 0x0)
 8012334:	3340      	movi      	r3, 64
 8012336:	dc6c2004 	st.w      	r3, (r12, 0x10)
    while(READ_BIT(hi2c->Instance->CR_SR, I2C_SR_TIP));
 801233a:	d86c2004 	ld.w      	r3, (r12, 0x10)
 801233e:	e4632002 	andi      	r3, r3, 2
 8012342:	e923fffc 	bnez      	r3, 0x801233a	// 801233a <HAL_I2C_Read+0x56>
    uint32_t i, ret = HAL_ERROR;
 8012346:	3001      	movi      	r0, 1
    WRITE_REG(hi2c->Instance->CR_SR, I2C_CR_STOP);
 8012348:	3340      	movi      	r3, 64
 801234a:	dc6c2004 	st.w      	r3, (r12, 0x10)
    while(READ_BIT(hi2c->Instance->CR_SR, I2C_SR_TIP));
 801234e:	d86c2004 	ld.w      	r3, (r12, 0x10)
 8012352:	e4632002 	andi      	r3, r3, 2
 8012356:	e923fffc 	bnez      	r3, 0x801234e	// 801234e <HAL_I2C_Read+0x6a>
    }
    ret = HAL_OK;
OUT:
    HAL_I2C_Stop(hi2c);
    return ret;
}
 801235a:	1491      	pop      	r4, r15
    for (i = 0; i < Size; i++)
 801235c:	6c37      	mov      	r0, r13
 801235e:	e90dfff5 	bez      	r13, 0x8012348	// 8012348 <HAL_I2C_Read+0x64>
 8012362:	e40d1000 	subi      	r0, r13, 1
 8012366:	6c4b      	mov      	r1, r2
    WRITE_REG(hi2c->Instance->CR_SR, value);
 8012368:	ea120020 	movi      	r18, 32
 801236c:	ea130028 	movi      	r19, 40
        if (i == (Size - 1))
 8012370:	6406      	cmpne      	r1, r0
 8012372:	0c14      	bf      	0x801239a	// 801239a <HAL_I2C_Read+0xb6>
    WRITE_REG(hi2c->Instance->CR_SR, value);
 8012374:	de4c2004 	st.w      	r18, (r12, 0x10)
    while(READ_BIT(hi2c->Instance->CR_SR, I2C_SR_TIP));
 8012378:	d84c2004 	ld.w      	r2, (r12, 0x10)
 801237c:	e4422002 	andi      	r2, r2, 2
 8012380:	e922fffc 	bnez      	r2, 0x8012378	// 8012378 <HAL_I2C_Read+0x94>
    for (i = 0; i < Size; i++)
 8012384:	2100      	addi      	r1, 1
    return READ_REG(hi2c->Instance->DATA);
 8012386:	d84c2003 	ld.w      	r2, (r12, 0xc)
    for (i = 0; i < Size; i++)
 801238a:	6746      	cmpne      	r1, r13
    return READ_REG(hi2c->Instance->DATA);
 801238c:	a340      	st.b      	r2, (r3, 0x0)
 801238e:	d9842000 	ld.w      	r12, (r4, 0x0)
 8012392:	2300      	addi      	r3, 1
    for (i = 0; i < Size; i++)
 8012394:	0bee      	bt      	0x8012370	// 8012370 <HAL_I2C_Read+0x8c>
    ret = HAL_OK;
 8012396:	3000      	movi      	r0, 0
 8012398:	07d8      	br      	0x8012348	// 8012348 <HAL_I2C_Read+0x64>
    WRITE_REG(hi2c->Instance->CR_SR, value);
 801239a:	de6c2004 	st.w      	r19, (r12, 0x10)
    while(READ_BIT(hi2c->Instance->CR_SR, I2C_SR_TIP));
 801239e:	d84c2004 	ld.w      	r2, (r12, 0x10)
 80123a2:	e4422002 	andi      	r2, r2, 2
 80123a6:	e922fffc 	bnez      	r2, 0x801239e	// 801239e <HAL_I2C_Read+0xba>
 80123aa:	07ed      	br      	0x8012384	// 8012384 <HAL_I2C_Read+0xa0>
 80123ac:	08018938 	.long	0x08018938

080123b0 <ST7789_WriteString.constprop.5>:
 * @param font -> fontstyle of the string
 * @param color -> color of the string
 * @param bgcolor -> background color of the string
 * @return  none
 */
void ST7789_WriteString(uint16_t x, uint16_t y, const char *str, FontDef font, uint16_t color, uint16_t bgcolor)
 80123b0:	ebe00058 	push      	r4-r11, r15, r16-r17
 80123b4:	1425      	subi      	r14, r14, 20
 80123b6:	6d07      	mov      	r4, r1
 80123b8:	b801      	st.w      	r0, (r14, 0x4)
 80123ba:	7588      	zextb      	r6, r2
 80123bc:	c50255eb 	zext      	r11, r2, 15, 8
{
	ST7789_Select();
 80123c0:	ea210080 	movih      	r1, 128
 80123c4:	3200      	movi      	r2, 0
 80123c6:	021a      	lrw      	r0, 0x40011400	// 8012658 <ST7789_WriteString.constprop.5+0x2a8>
void ST7789_WriteString(uint16_t x, uint16_t y, const char *str, FontDef font, uint16_t color, uint16_t bgcolor)
 80123c8:	b862      	st.w      	r3, (r14, 0x8)
	ST7789_Select();
 80123ca:	e3fffca9 	bsr      	0x8011d1c	// 8011d1c <HAL_GPIO_WritePin>
 80123ce:	5c62      	addi      	r3, r4, 1
 80123d0:	b860      	st.w      	r3, (r14, 0x0)
	while (*str) {
 80123d2:	2b00      	subi      	r3, 1
	for (i = 0; i < font.height; i++) {
 80123d4:	ea11000a 	movi      	r17, 10
	while (*str) {
 80123d8:	8380      	ld.b      	r4, (r3, 0x0)
	HAL_SPI_Transmit(&ST7789_SPI_PORT, &cmd, sizeof(cmd), HAL_MAX_DELAY);
 80123da:	02be      	lrw      	r5, 0x200018b4	// 801265c <ST7789_WriteString.constprop.5+0x2ac>
	while (*str) {
 80123dc:	e904012c 	bez      	r4, 0x8012634	// 8012634 <ST7789_WriteString.constprop.5+0x284>
		if (x + font.width >= ST7789_WIDTH) {
 80123e0:	c4d10028 	addu      	r8, r17, r6
 80123e4:	eb2800ef 	cmplti      	r8, 240
			x = 0;
			y += font.height;
 80123e8:	75ed      	zexth      	r7, r11
		if (x + font.width >= ST7789_WIDTH) {
 80123ea:	092e      	bt      	0x8012646	// 8012646 <ST7789_WriteString.constprop.5+0x296>
			y += font.height;
 80123ec:	9861      	ld.w      	r3, (r14, 0x4)
 80123ee:	c4670030 	addu      	r16, r7, r3
 80123f2:	c41055e3 	zext      	r3, r16, 15, 0
 80123f6:	b861      	st.w      	r3, (r14, 0x4)
			if (y + font.height >= ST7789_HEIGHT) {
 80123f8:	60ec      	addu      	r3, r11
 80123fa:	eb2300ef 	cmplti      	r3, 240
 80123fe:	0d1b      	bf      	0x8012634	// 8012634 <ST7789_WriteString.constprop.5+0x284>
				break;
			}

			if (*str == ' ') {
 8012400:	eb440020 	cmpnei      	r4, 32
 8012404:	0d26      	bf      	0x8012650	// 8012650 <ST7789_WriteString.constprop.5+0x2a0>
 8012406:	ea090000 	movi      	r9, 0
 801240a:	6ea7      	mov      	r10, r9
 801240c:	6e1b      	mov      	r8, r6
	ST7789_Select();
 801240e:	3200      	movi      	r2, 0
 8012410:	ea210080 	movih      	r1, 128
 8012414:	030e      	lrw      	r0, 0x40011400	// 8012658 <ST7789_WriteString.constprop.5+0x2a8>
 8012416:	e3fffc83 	bsr      	0x8011d1c	// 8011d1c <HAL_GPIO_WritePin>
	ST7789_SetAddressWindow(x, y, x + font.width - 1, y + font.height - 1);
 801241a:	da0e2001 	ld.w      	r16, (r14, 0x4)
 801241e:	c4104823 	lsli      	r3, r16, 0
	ST7789_Select();
 8012422:	3200      	movi      	r2, 0
 8012424:	ea210080 	movih      	r1, 128
 8012428:	0313      	lrw      	r0, 0x40011400	// 8012658 <ST7789_WriteString.constprop.5+0x2a8>
	ST7789_SetAddressWindow(x, y, x + font.width - 1, y + font.height - 1);
 801242a:	61cc      	addu      	r7, r3
	ST7789_Select();
 801242c:	e3fffc78 	bsr      	0x8011d1c	// 8011d1c <HAL_GPIO_WritePin>
 8012430:	312a      	movi      	r1, 42
 8012432:	dc2e000f 	st.b      	r1, (r14, 0xf)
	ST7789_Select();
 8012436:	3200      	movi      	r2, 0
 8012438:	ea210080 	movih      	r1, 128
 801243c:	0318      	lrw      	r0, 0x40011400	// 8012658 <ST7789_WriteString.constprop.5+0x2a8>
 801243e:	e3fffc6f 	bsr      	0x8011d1c	// 8011d1c <HAL_GPIO_WritePin>
	ST7789_DC_Clr();
 8012442:	3200      	movi      	r2, 0
 8012444:	ea210040 	movih      	r1, 64
 8012448:	031b      	lrw      	r0, 0x40011400	// 8012658 <ST7789_WriteString.constprop.5+0x2a8>
 801244a:	e3fffc69 	bsr      	0x8011d1c	// 8011d1c <HAL_GPIO_WritePin>
	ST7789_SetAddressWindow(x, y, x + font.width - 1, y + font.height - 1);
 801244e:	c40855f1 	zext      	r17, r8, 15, 0
	HAL_SPI_Transmit(&ST7789_SPI_PORT, &cmd, sizeof(cmd), HAL_MAX_DELAY);
 8012452:	3300      	movi      	r3, 0
 8012454:	2b00      	subi      	r3, 1
 8012456:	3201      	movi      	r2, 1
 8012458:	e42e000e 	addi      	r1, r14, 15
	ST7789_SetAddressWindow(x, y, x + font.width - 1, y + font.height - 1);
 801245c:	e5111000 	subi      	r8, r17, 1
	HAL_SPI_Transmit(&ST7789_SPI_PORT, &cmd, sizeof(cmd), HAL_MAX_DELAY);
 8012460:	6c17      	mov      	r0, r5
 8012462:	e3fffd5f 	bsr      	0x8011f20	// 8011f20 <HAL_SPI_Transmit>
	ST7789_SetAddressWindow(x, y, x + font.width - 1, y + font.height - 1);
 8012466:	7621      	zexth      	r8, r8
	ST7789_UnSelect();
 8012468:	3201      	movi      	r2, 1
 801246a:	ea210080 	movih      	r1, 128
 801246e:	131b      	lrw      	r0, 0x40011400	// 8012658 <ST7789_WriteString.constprop.5+0x2a8>
 8012470:	e3fffc56 	bsr      	0x8011d1c	// 8011d1c <HAL_GPIO_WritePin>
		uint8_t data[] = {x_start >> 8, x_start & 0xFF, x_end >> 8, x_end & 0xFF};
 8012474:	c5084843 	lsri      	r3, r8, 8
	ST7789_Select();
 8012478:	3200      	movi      	r2, 0
 801247a:	ea210080 	movih      	r1, 128
 801247e:	1317      	lrw      	r0, 0x40011400	// 8012658 <ST7789_WriteString.constprop.5+0x2a8>
		uint8_t data[] = {x_start >> 8, x_start & 0xFF, x_end >> 8, x_end & 0xFF};
 8012480:	dc6e0012 	st.b      	r3, (r14, 0x12)
 8012484:	dd4e0010 	st.b      	r10, (r14, 0x10)
 8012488:	dd2e0011 	st.b      	r9, (r14, 0x11)
 801248c:	dd0e0013 	st.b      	r8, (r14, 0x13)
	ST7789_Select();
 8012490:	e3fffc46 	bsr      	0x8011d1c	// 8011d1c <HAL_GPIO_WritePin>
	ST7789_DC_Set();
 8012494:	3201      	movi      	r2, 1
 8012496:	ea210040 	movih      	r1, 64
 801249a:	1310      	lrw      	r0, 0x40011400	// 8012658 <ST7789_WriteString.constprop.5+0x2a8>
 801249c:	e3fffc40 	bsr      	0x8011d1c	// 8011d1c <HAL_GPIO_WritePin>
			HAL_SPI_Transmit(&ST7789_SPI_PORT, buff, chunk_size, HAL_MAX_DELAY);
 80124a0:	3300      	movi      	r3, 0
 80124a2:	2b00      	subi      	r3, 1
 80124a4:	3204      	movi      	r2, 4
 80124a6:	1904      	addi      	r1, r14, 16
 80124a8:	6c17      	mov      	r0, r5
 80124aa:	e3fffd3b 	bsr      	0x8011f20	// 8011f20 <HAL_SPI_Transmit>
	ST7789_UnSelect();
 80124ae:	3201      	movi      	r2, 1
 80124b0:	ea210080 	movih      	r1, 128
 80124b4:	1309      	lrw      	r0, 0x40011400	// 8012658 <ST7789_WriteString.constprop.5+0x2a8>
 80124b6:	e3fffc33 	bsr      	0x8011d1c	// 8011d1c <HAL_GPIO_WritePin>
 80124ba:	312b      	movi      	r1, 43
 80124bc:	dc2e000e 	st.b      	r1, (r14, 0xe)
	ST7789_Select();
 80124c0:	3200      	movi      	r2, 0
 80124c2:	ea210080 	movih      	r1, 128
 80124c6:	1305      	lrw      	r0, 0x40011400	// 8012658 <ST7789_WriteString.constprop.5+0x2a8>
 80124c8:	e3fffc2a 	bsr      	0x8011d1c	// 8011d1c <HAL_GPIO_WritePin>
	ST7789_DC_Clr();
 80124cc:	3200      	movi      	r2, 0
 80124ce:	ea210040 	movih      	r1, 64
 80124d2:	1302      	lrw      	r0, 0x40011400	// 8012658 <ST7789_WriteString.constprop.5+0x2a8>
 80124d4:	e3fffc24 	bsr      	0x8011d1c	// 8011d1c <HAL_GPIO_WritePin>
	HAL_SPI_Transmit(&ST7789_SPI_PORT, &cmd, sizeof(cmd), HAL_MAX_DELAY);
 80124d8:	3300      	movi      	r3, 0
 80124da:	2b00      	subi      	r3, 1
 80124dc:	3201      	movi      	r2, 1
 80124de:	e42e000d 	addi      	r1, r14, 14
 80124e2:	6c17      	mov      	r0, r5
 80124e4:	e3fffd1e 	bsr      	0x8011f20	// 8011f20 <HAL_SPI_Transmit>
	ST7789_UnSelect();
 80124e8:	3201      	movi      	r2, 1
 80124ea:	ea210080 	movih      	r1, 128
 80124ee:	121b      	lrw      	r0, 0x40011400	// 8012658 <ST7789_WriteString.constprop.5+0x2a8>
 80124f0:	e3fffc16 	bsr      	0x8011d1c	// 8011d1c <HAL_GPIO_WritePin>
	ST7789_SetAddressWindow(x, y, x + font.width - 1, y + font.height - 1);
 80124f4:	2f00      	subi      	r7, 1
		uint8_t data[] = {y_start >> 8, y_start & 0xFF, y_end >> 8, y_end & 0xFF};
 80124f6:	c4104822 	lsli      	r2, r16, 0
 80124fa:	4a68      	lsri      	r3, r2, 8
	ST7789_SetAddressWindow(x, y, x + font.width - 1, y + font.height - 1);
 80124fc:	75dd      	zexth      	r7, r7
		uint8_t data[] = {y_start >> 8, y_start & 0xFF, y_end >> 8, y_end & 0xFF};
 80124fe:	dc6e0010 	st.b      	r3, (r14, 0x10)
	ST7789_Select();
 8012502:	3200      	movi      	r2, 0
		uint8_t data[] = {y_start >> 8, y_start & 0xFF, y_end >> 8, y_end & 0xFF};
 8012504:	4f68      	lsri      	r3, r7, 8
	ST7789_Select();
 8012506:	ea210080 	movih      	r1, 128
 801250a:	1214      	lrw      	r0, 0x40011400	// 8012658 <ST7789_WriteString.constprop.5+0x2a8>
		uint8_t data[] = {y_start >> 8, y_start & 0xFF, y_end >> 8, y_end & 0xFF};
 801250c:	dc6e0012 	st.b      	r3, (r14, 0x12)
 8012510:	de0e0011 	st.b      	r16, (r14, 0x11)
 8012514:	dcee0013 	st.b      	r7, (r14, 0x13)
	ST7789_Select();
 8012518:	e3fffc02 	bsr      	0x8011d1c	// 8011d1c <HAL_GPIO_WritePin>
	ST7789_DC_Set();
 801251c:	3201      	movi      	r2, 1
 801251e:	ea210040 	movih      	r1, 64
 8012522:	120e      	lrw      	r0, 0x40011400	// 8012658 <ST7789_WriteString.constprop.5+0x2a8>
 8012524:	e3fffbfc 	bsr      	0x8011d1c	// 8011d1c <HAL_GPIO_WritePin>
			HAL_SPI_Transmit(&ST7789_SPI_PORT, buff, chunk_size, HAL_MAX_DELAY);
 8012528:	3300      	movi      	r3, 0
 801252a:	2b00      	subi      	r3, 1
 801252c:	3204      	movi      	r2, 4
 801252e:	1904      	addi      	r1, r14, 16
 8012530:	6c17      	mov      	r0, r5
 8012532:	e3fffcf7 	bsr      	0x8011f20	// 8011f20 <HAL_SPI_Transmit>
	ST7789_UnSelect();
 8012536:	3201      	movi      	r2, 1
 8012538:	ea210080 	movih      	r1, 128
 801253c:	1207      	lrw      	r0, 0x40011400	// 8012658 <ST7789_WriteString.constprop.5+0x2a8>
 801253e:	e3fffbef 	bsr      	0x8011d1c	// 8011d1c <HAL_GPIO_WritePin>
 8012542:	332c      	movi      	r3, 44
	ST7789_Select();
 8012544:	3200      	movi      	r2, 0
 8012546:	ea210080 	movih      	r1, 128
 801254a:	1204      	lrw      	r0, 0x40011400	// 8012658 <ST7789_WriteString.constprop.5+0x2a8>
 801254c:	dc6e000d 	st.b      	r3, (r14, 0xd)
 8012550:	e3fffbe6 	bsr      	0x8011d1c	// 8011d1c <HAL_GPIO_WritePin>
	ST7789_DC_Clr();
 8012554:	3200      	movi      	r2, 0
 8012556:	ea210040 	movih      	r1, 64
 801255a:	1200      	lrw      	r0, 0x40011400	// 8012658 <ST7789_WriteString.constprop.5+0x2a8>
 801255c:	e3fffbe0 	bsr      	0x8011d1c	// 8011d1c <HAL_GPIO_WritePin>
	HAL_SPI_Transmit(&ST7789_SPI_PORT, &cmd, sizeof(cmd), HAL_MAX_DELAY);
 8012560:	3300      	movi      	r3, 0
 8012562:	2b00      	subi      	r3, 1
 8012564:	3201      	movi      	r2, 1
 8012566:	e42e000c 	addi      	r1, r14, 13
 801256a:	6c17      	mov      	r0, r5
 801256c:	e3fffcda 	bsr      	0x8011f20	// 8011f20 <HAL_SPI_Transmit>
	ST7789_UnSelect();
 8012570:	3201      	movi      	r2, 1
 8012572:	ea210080 	movih      	r1, 128
 8012576:	1119      	lrw      	r0, 0x40011400	// 8012658 <ST7789_WriteString.constprop.5+0x2a8>
 8012578:	e3fffbd2 	bsr      	0x8011d1c	// 8011d1c <HAL_GPIO_WritePin>
	ST7789_UnSelect();
 801257c:	3201      	movi      	r2, 1
 801257e:	ea210080 	movih      	r1, 128
 8012582:	1116      	lrw      	r0, 0x40011400	// 8012658 <ST7789_WriteString.constprop.5+0x2a8>
 8012584:	e3fffbcc 	bsr      	0x8011d1c	// 8011d1c <HAL_GPIO_WritePin>
	for (i = 0; i < font.height; i++) {
 8012588:	e90b0049 	bez      	r11, 0x801261a	// 801261a <ST7789_WriteString.constprop.5+0x26a>
 801258c:	2c1f      	subi      	r4, 32
 801258e:	c564842a 	mult      	r10, r4, r11
 8012592:	e9060044 	bez      	r6, 0x801261a	// 801261a <ST7789_WriteString.constprop.5+0x26a>
 8012596:	ea090000 	movi      	r9, 0
 801259a:	62a8      	addu      	r10, r10
 801259c:	9862      	ld.w      	r3, (r14, 0x8)
				uint8_t data[] = {bgcolor >> 8, bgcolor & 0xFF};
 801259e:	6de7      	mov      	r7, r9
 80125a0:	628c      	addu      	r10, r3
			if ((b << j) & 0x8000) {
 80125a2:	ea088000 	movi      	r8, 32768
				uint8_t data[] = {bgcolor >> 8, bgcolor & 0xFF};
 80125a6:	2f00      	subi      	r7, 1
		b = font.data[(ch - 32) * font.height + i];
 80125a8:	d12a0444 	ldr.h      	r4, (r10, r9 << 1)
 80125ac:	7511      	zexth      	r4, r4
 80125ae:	ea100000 	movi      	r16, 0
 80125b2:	0426      	br      	0x80125fe	// 80125fe <ST7789_WriteString.constprop.5+0x24e>
				uint8_t data[] = {color >> 8, color & 0xFF};
 80125b4:	3300      	movi      	r3, 0
 80125b6:	2b07      	subi      	r3, 8
 80125b8:	dc6e0010 	st.b      	r3, (r14, 0x10)
 80125bc:	3300      	movi      	r3, 0
 80125be:	dc6e0011 	st.b      	r3, (r14, 0x11)
	ST7789_Select();
 80125c2:	3200      	movi      	r2, 0
 80125c4:	ea210080 	movih      	r1, 128
 80125c8:	1104      	lrw      	r0, 0x40011400	// 8012658 <ST7789_WriteString.constprop.5+0x2a8>
 80125ca:	e3fffba9 	bsr      	0x8011d1c	// 8011d1c <HAL_GPIO_WritePin>
	ST7789_DC_Set();
 80125ce:	3201      	movi      	r2, 1
 80125d0:	ea210040 	movih      	r1, 64
 80125d4:	1101      	lrw      	r0, 0x40011400	// 8012658 <ST7789_WriteString.constprop.5+0x2a8>
 80125d6:	e3fffba3 	bsr      	0x8011d1c	// 8011d1c <HAL_GPIO_WritePin>
			HAL_SPI_Transmit(&ST7789_SPI_PORT, buff, chunk_size, HAL_MAX_DELAY);
 80125da:	3300      	movi      	r3, 0
 80125dc:	2b00      	subi      	r3, 1
 80125de:	3202      	movi      	r2, 2
 80125e0:	1904      	addi      	r1, r14, 16
 80125e2:	6c17      	mov      	r0, r5
 80125e4:	e3fffc9e 	bsr      	0x8011f20	// 8011f20 <HAL_SPI_Transmit>
		for (j = 0; j < font.width; j++) {
 80125e8:	e6100000 	addi      	r16, r16, 1
	ST7789_UnSelect();
 80125ec:	3201      	movi      	r2, 1
 80125ee:	ea210080 	movih      	r1, 128
 80125f2:	101a      	lrw      	r0, 0x40011400	// 8012658 <ST7789_WriteString.constprop.5+0x2a8>
 80125f4:	e3fffb94 	bsr      	0x8011d1c	// 8011d1c <HAL_GPIO_WritePin>
		for (j = 0; j < font.width; j++) {
 80125f8:	c4d00480 	cmpne      	r16, r6
 80125fc:	0c0b      	bf      	0x8012612	// 8012612 <ST7789_WriteString.constprop.5+0x262>
			if ((b << j) & 0x8000) {
 80125fe:	c6044022 	lsl      	r2, r4, r16
 8012602:	68a0      	and      	r2, r8
 8012604:	e922ffd8 	bnez      	r2, 0x80125b4	// 80125b4 <ST7789_WriteString.constprop.5+0x204>
				uint8_t data[] = {bgcolor >> 8, bgcolor & 0xFF};
 8012608:	dcee0010 	st.b      	r7, (r14, 0x10)
 801260c:	dcee0011 	st.b      	r7, (r14, 0x11)
 8012610:	07da      	br      	0x80125c4	// 80125c4 <ST7789_WriteString.constprop.5+0x214>
	for (i = 0; i < font.height; i++) {
 8012612:	e5290000 	addi      	r9, r9, 1
 8012616:	66e6      	cmpne      	r9, r11
 8012618:	0bc8      	bt      	0x80125a8	// 80125a8 <ST7789_WriteString.constprop.5+0x1f8>
	ST7789_UnSelect();
 801261a:	3201      	movi      	r2, 1
 801261c:	ea210080 	movih      	r1, 128
 8012620:	100e      	lrw      	r0, 0x40011400	// 8012658 <ST7789_WriteString.constprop.5+0x2a8>
 8012622:	e3fffb7d 	bsr      	0x8011d1c	// 8011d1c <HAL_GPIO_WritePin>
 8012626:	9860      	ld.w      	r3, (r14, 0x0)
 8012628:	2300      	addi      	r3, 1
 801262a:	b860      	st.w      	r3, (r14, 0x0)
	while (*str) {
 801262c:	2b00      	subi      	r3, 1
 801262e:	8380      	ld.b      	r4, (r3, 0x0)
 8012630:	e924fed8 	bnez      	r4, 0x80123e0	// 80123e0 <ST7789_WriteString.constprop.5+0x30>
		}
		ST7789_WriteChar(x, y, *str, font, color, bgcolor);
		x += font.width;
		str++;
	}
	ST7789_UnSelect();
 8012634:	3201      	movi      	r2, 1
 8012636:	ea210080 	movih      	r1, 128
 801263a:	1008      	lrw      	r0, 0x40011400	// 8012658 <ST7789_WriteString.constprop.5+0x2a8>
 801263c:	e3fffb70 	bsr      	0x8011d1c	// 8011d1c <HAL_GPIO_WritePin>
}
 8012640:	1405      	addi      	r14, r14, 20
 8012642:	ebc00058 	pop      	r4-r11, r15, r16-r17
 8012646:	c511484a 	lsri      	r10, r17, 8
 801264a:	c41154e9 	zext      	r9, r17, 7, 0
 801264e:	06e0      	br      	0x801240e	// 801240e <ST7789_WriteString.constprop.5+0x5e>
			x = 0;
 8012650:	ea110000 	movi      	r17, 0
 8012654:	07e9      	br      	0x8012626	// 8012626 <ST7789_WriteString.constprop.5+0x276>
 8012656:	0000      	.short	0x0000
 8012658:	40011400 	.long	0x40011400
 801265c:	200018b4 	.long	0x200018b4

08012660 <ST7789_WriteString.constprop.7>:
void ST7789_WriteString(uint16_t x, uint16_t y, const char *str, FontDef font, uint16_t color, uint16_t bgcolor)
 8012660:	ebe00058 	push      	r4-r11, r15, r16-r17
 8012664:	1427      	subi      	r14, r14, 28
 8012666:	6d07      	mov      	r4, r1
 8012668:	b803      	st.w      	r0, (r14, 0xc)
 801266a:	b864      	st.w      	r3, (r14, 0x10)
 801266c:	75c8      	zextb      	r7, r2
 801266e:	c50255e3 	zext      	r3, r2, 15, 8
	ST7789_Select();
 8012672:	ea210080 	movih      	r1, 128
 8012676:	3200      	movi      	r2, 0
 8012678:	0214      	lrw      	r0, 0x40011400	// 8012924 <ST7789_WriteString.constprop.7+0x2c4>
void ST7789_WriteString(uint16_t x, uint16_t y, const char *str, FontDef font, uint16_t color, uint16_t bgcolor)
 801267a:	d92e1024 	ld.h      	r9, (r14, 0x48)
 801267e:	b860      	st.w      	r3, (r14, 0x0)
	ST7789_Select();
 8012680:	e3fffb4e 	bsr      	0x8011d1c	// 8011d1c <HAL_GPIO_WritePin>
 8012684:	5c62      	addi      	r3, r4, 1
 8012686:	b861      	st.w      	r3, (r14, 0x4)
				uint8_t data[] = {bgcolor >> 8, bgcolor & 0xFF};
 8012688:	330a      	movi      	r3, 10
 801268a:	b862      	st.w      	r3, (r14, 0x8)
 801268c:	9861      	ld.w      	r3, (r14, 0x4)
	while (*str) {
 801268e:	2b00      	subi      	r3, 1
				uint8_t data[] = {bgcolor >> 8, bgcolor & 0xFF};
 8012690:	c509484a 	lsri      	r10, r9, 8
	while (*str) {
 8012694:	8380      	ld.b      	r4, (r3, 0x0)
	HAL_SPI_Transmit(&ST7789_SPI_PORT, &cmd, sizeof(cmd), HAL_MAX_DELAY);
 8012696:	02da      	lrw      	r6, 0x200018b4	// 8012928 <ST7789_WriteString.constprop.7+0x2c8>
	while (*str) {
 8012698:	e9040131 	bez      	r4, 0x80128fa	// 80128fa <ST7789_WriteString.constprop.7+0x29a>
		if (x + font.width >= ST7789_WIDTH) {
 801269c:	9862      	ld.w      	r3, (r14, 0x8)
 801269e:	c4e30028 	addu      	r8, r3, r7
 80126a2:	eb2800ef 	cmplti      	r8, 240
 80126a6:	0933      	bt      	0x801290c	// 801290c <ST7789_WriteString.constprop.7+0x2ac>
			y += font.height;
 80126a8:	9840      	ld.w      	r2, (r14, 0x0)
 80126aa:	9863      	ld.w      	r3, (r14, 0xc)
 80126ac:	7549      	zexth      	r5, r2
 80126ae:	60d4      	addu      	r3, r5
 80126b0:	74cd      	zexth      	r3, r3
 80126b2:	b863      	st.w      	r3, (r14, 0xc)
			if (y + font.height >= ST7789_HEIGHT) {
 80126b4:	60c8      	addu      	r3, r2
 80126b6:	eb2300ef 	cmplti      	r3, 240
 80126ba:	0d20      	bf      	0x80128fa	// 80128fa <ST7789_WriteString.constprop.7+0x29a>
			if (*str == ' ') {
 80126bc:	eb440020 	cmpnei      	r4, 32
 80126c0:	0d2e      	bf      	0x801291c	// 801291c <ST7789_WriteString.constprop.7+0x2bc>
 80126c2:	ea0b0000 	movi      	r11, 0
 80126c6:	c40b4830 	lsli      	r16, r11, 0
 80126ca:	6e1f      	mov      	r8, r7
	ST7789_Select();
 80126cc:	3200      	movi      	r2, 0
 80126ce:	ea210080 	movih      	r1, 128
 80126d2:	030a      	lrw      	r0, 0x40011400	// 8012924 <ST7789_WriteString.constprop.7+0x2c4>
 80126d4:	e3fffb24 	bsr      	0x8011d1c	// 8011d1c <HAL_GPIO_WritePin>
	ST7789_SetAddressWindow(x, y, x + font.width - 1, y + font.height - 1);
 80126d8:	da2e2003 	ld.w      	r17, (r14, 0xc)
 80126dc:	74e1      	zexth      	r3, r8
 80126de:	b862      	st.w      	r3, (r14, 0x8)
 80126e0:	e5031000 	subi      	r8, r3, 1
	ST7789_Select();
 80126e4:	3200      	movi      	r2, 0
	ST7789_SetAddressWindow(x, y, x + font.width - 1, y + font.height - 1);
 80126e6:	c4114823 	lsli      	r3, r17, 0
	ST7789_Select();
 80126ea:	ea210080 	movih      	r1, 128
 80126ee:	0311      	lrw      	r0, 0x40011400	// 8012924 <ST7789_WriteString.constprop.7+0x2c4>
	ST7789_SetAddressWindow(x, y, x + font.width - 1, y + font.height - 1);
 80126f0:	614c      	addu      	r5, r3
	ST7789_Select();
 80126f2:	e3fffb15 	bsr      	0x8011d1c	// 8011d1c <HAL_GPIO_WritePin>
 80126f6:	312a      	movi      	r1, 42
 80126f8:	dc2e0017 	st.b      	r1, (r14, 0x17)
	ST7789_Select();
 80126fc:	3200      	movi      	r2, 0
 80126fe:	ea210080 	movih      	r1, 128
 8012702:	0316      	lrw      	r0, 0x40011400	// 8012924 <ST7789_WriteString.constprop.7+0x2c4>
 8012704:	e3fffb0c 	bsr      	0x8011d1c	// 8011d1c <HAL_GPIO_WritePin>
	ST7789_DC_Clr();
 8012708:	3200      	movi      	r2, 0
 801270a:	ea210040 	movih      	r1, 64
 801270e:	0319      	lrw      	r0, 0x40011400	// 8012924 <ST7789_WriteString.constprop.7+0x2c4>
 8012710:	e3fffb06 	bsr      	0x8011d1c	// 8011d1c <HAL_GPIO_WritePin>
	HAL_SPI_Transmit(&ST7789_SPI_PORT, &cmd, sizeof(cmd), HAL_MAX_DELAY);
 8012714:	3300      	movi      	r3, 0
 8012716:	2b00      	subi      	r3, 1
 8012718:	3201      	movi      	r2, 1
 801271a:	e42e0016 	addi      	r1, r14, 23
 801271e:	6c1b      	mov      	r0, r6
 8012720:	e3fffc00 	bsr      	0x8011f20	// 8011f20 <HAL_SPI_Transmit>
	ST7789_SetAddressWindow(x, y, x + font.width - 1, y + font.height - 1);
 8012724:	7621      	zexth      	r8, r8
	ST7789_UnSelect();
 8012726:	3201      	movi      	r2, 1
 8012728:	ea210080 	movih      	r1, 128
 801272c:	131e      	lrw      	r0, 0x40011400	// 8012924 <ST7789_WriteString.constprop.7+0x2c4>
 801272e:	e3fffaf7 	bsr      	0x8011d1c	// 8011d1c <HAL_GPIO_WritePin>
		uint8_t data[] = {x_start >> 8, x_start & 0xFF, x_end >> 8, x_end & 0xFF};
 8012732:	c5084843 	lsri      	r3, r8, 8
	ST7789_Select();
 8012736:	3200      	movi      	r2, 0
 8012738:	ea210080 	movih      	r1, 128
 801273c:	131a      	lrw      	r0, 0x40011400	// 8012924 <ST7789_WriteString.constprop.7+0x2c4>
		uint8_t data[] = {x_start >> 8, x_start & 0xFF, x_end >> 8, x_end & 0xFF};
 801273e:	dc6e001a 	st.b      	r3, (r14, 0x1a)
 8012742:	de0e0018 	st.b      	r16, (r14, 0x18)
 8012746:	dd6e0019 	st.b      	r11, (r14, 0x19)
 801274a:	dd0e001b 	st.b      	r8, (r14, 0x1b)
	ST7789_Select();
 801274e:	e3fffae7 	bsr      	0x8011d1c	// 8011d1c <HAL_GPIO_WritePin>
	ST7789_DC_Set();
 8012752:	3201      	movi      	r2, 1
 8012754:	ea210040 	movih      	r1, 64
 8012758:	1313      	lrw      	r0, 0x40011400	// 8012924 <ST7789_WriteString.constprop.7+0x2c4>
 801275a:	e3fffae1 	bsr      	0x8011d1c	// 8011d1c <HAL_GPIO_WritePin>
			HAL_SPI_Transmit(&ST7789_SPI_PORT, buff, chunk_size, HAL_MAX_DELAY);
 801275e:	3300      	movi      	r3, 0
 8012760:	2b00      	subi      	r3, 1
 8012762:	3204      	movi      	r2, 4
 8012764:	1906      	addi      	r1, r14, 24
 8012766:	6c1b      	mov      	r0, r6
 8012768:	e3fffbdc 	bsr      	0x8011f20	// 8011f20 <HAL_SPI_Transmit>
	ST7789_UnSelect();
 801276c:	3201      	movi      	r2, 1
 801276e:	ea210080 	movih      	r1, 128
 8012772:	130d      	lrw      	r0, 0x40011400	// 8012924 <ST7789_WriteString.constprop.7+0x2c4>
 8012774:	e3fffad4 	bsr      	0x8011d1c	// 8011d1c <HAL_GPIO_WritePin>
 8012778:	312b      	movi      	r1, 43
 801277a:	dc2e0016 	st.b      	r1, (r14, 0x16)
	ST7789_Select();
 801277e:	3200      	movi      	r2, 0
 8012780:	ea210080 	movih      	r1, 128
 8012784:	1308      	lrw      	r0, 0x40011400	// 8012924 <ST7789_WriteString.constprop.7+0x2c4>
 8012786:	e3fffacb 	bsr      	0x8011d1c	// 8011d1c <HAL_GPIO_WritePin>
	ST7789_DC_Clr();
 801278a:	3200      	movi      	r2, 0
 801278c:	ea210040 	movih      	r1, 64
 8012790:	1305      	lrw      	r0, 0x40011400	// 8012924 <ST7789_WriteString.constprop.7+0x2c4>
 8012792:	e3fffac5 	bsr      	0x8011d1c	// 8011d1c <HAL_GPIO_WritePin>
	HAL_SPI_Transmit(&ST7789_SPI_PORT, &cmd, sizeof(cmd), HAL_MAX_DELAY);
 8012796:	3300      	movi      	r3, 0
 8012798:	2b00      	subi      	r3, 1
 801279a:	3201      	movi      	r2, 1
 801279c:	e42e0015 	addi      	r1, r14, 22
 80127a0:	6c1b      	mov      	r0, r6
 80127a2:	e3fffbbf 	bsr      	0x8011f20	// 8011f20 <HAL_SPI_Transmit>
	ST7789_UnSelect();
 80127a6:	3201      	movi      	r2, 1
 80127a8:	ea210080 	movih      	r1, 128
 80127ac:	121e      	lrw      	r0, 0x40011400	// 8012924 <ST7789_WriteString.constprop.7+0x2c4>
 80127ae:	e3fffab7 	bsr      	0x8011d1c	// 8011d1c <HAL_GPIO_WritePin>
	ST7789_SetAddressWindow(x, y, x + font.width - 1, y + font.height - 1);
 80127b2:	2d00      	subi      	r5, 1
		uint8_t data[] = {y_start >> 8, y_start & 0xFF, y_end >> 8, y_end & 0xFF};
 80127b4:	c4114822 	lsli      	r2, r17, 0
 80127b8:	4a68      	lsri      	r3, r2, 8
	ST7789_SetAddressWindow(x, y, x + font.width - 1, y + font.height - 1);
 80127ba:	7555      	zexth      	r5, r5
		uint8_t data[] = {y_start >> 8, y_start & 0xFF, y_end >> 8, y_end & 0xFF};
 80127bc:	dc6e0018 	st.b      	r3, (r14, 0x18)
	ST7789_Select();
 80127c0:	3200      	movi      	r2, 0
		uint8_t data[] = {y_start >> 8, y_start & 0xFF, y_end >> 8, y_end & 0xFF};
 80127c2:	4d68      	lsri      	r3, r5, 8
	ST7789_Select();
 80127c4:	ea210080 	movih      	r1, 128
 80127c8:	1217      	lrw      	r0, 0x40011400	// 8012924 <ST7789_WriteString.constprop.7+0x2c4>
		uint8_t data[] = {y_start >> 8, y_start & 0xFF, y_end >> 8, y_end & 0xFF};
 80127ca:	dc6e001a 	st.b      	r3, (r14, 0x1a)
 80127ce:	de2e0019 	st.b      	r17, (r14, 0x19)
 80127d2:	dcae001b 	st.b      	r5, (r14, 0x1b)
	ST7789_Select();
 80127d6:	e3fffaa3 	bsr      	0x8011d1c	// 8011d1c <HAL_GPIO_WritePin>
	ST7789_DC_Set();
 80127da:	3201      	movi      	r2, 1
 80127dc:	ea210040 	movih      	r1, 64
 80127e0:	1211      	lrw      	r0, 0x40011400	// 8012924 <ST7789_WriteString.constprop.7+0x2c4>
 80127e2:	e3fffa9d 	bsr      	0x8011d1c	// 8011d1c <HAL_GPIO_WritePin>
			HAL_SPI_Transmit(&ST7789_SPI_PORT, buff, chunk_size, HAL_MAX_DELAY);
 80127e6:	3300      	movi      	r3, 0
 80127e8:	2b00      	subi      	r3, 1
 80127ea:	3204      	movi      	r2, 4
 80127ec:	1906      	addi      	r1, r14, 24
 80127ee:	6c1b      	mov      	r0, r6
 80127f0:	e3fffb98 	bsr      	0x8011f20	// 8011f20 <HAL_SPI_Transmit>
	ST7789_UnSelect();
 80127f4:	3201      	movi      	r2, 1
 80127f6:	ea210080 	movih      	r1, 128
 80127fa:	120b      	lrw      	r0, 0x40011400	// 8012924 <ST7789_WriteString.constprop.7+0x2c4>
 80127fc:	e3fffa90 	bsr      	0x8011d1c	// 8011d1c <HAL_GPIO_WritePin>
 8012800:	332c      	movi      	r3, 44
	ST7789_Select();
 8012802:	3200      	movi      	r2, 0
 8012804:	ea210080 	movih      	r1, 128
 8012808:	1207      	lrw      	r0, 0x40011400	// 8012924 <ST7789_WriteString.constprop.7+0x2c4>
 801280a:	dc6e0015 	st.b      	r3, (r14, 0x15)
 801280e:	e3fffa87 	bsr      	0x8011d1c	// 8011d1c <HAL_GPIO_WritePin>
	ST7789_DC_Clr();
 8012812:	3200      	movi      	r2, 0
 8012814:	ea210040 	movih      	r1, 64
 8012818:	1203      	lrw      	r0, 0x40011400	// 8012924 <ST7789_WriteString.constprop.7+0x2c4>
 801281a:	e3fffa81 	bsr      	0x8011d1c	// 8011d1c <HAL_GPIO_WritePin>
	HAL_SPI_Transmit(&ST7789_SPI_PORT, &cmd, sizeof(cmd), HAL_MAX_DELAY);
 801281e:	3300      	movi      	r3, 0
 8012820:	2b00      	subi      	r3, 1
 8012822:	3201      	movi      	r2, 1
 8012824:	e42e0014 	addi      	r1, r14, 21
 8012828:	6c1b      	mov      	r0, r6
 801282a:	e3fffb7b 	bsr      	0x8011f20	// 8011f20 <HAL_SPI_Transmit>
	ST7789_UnSelect();
 801282e:	3201      	movi      	r2, 1
 8012830:	ea210080 	movih      	r1, 128
 8012834:	111c      	lrw      	r0, 0x40011400	// 8012924 <ST7789_WriteString.constprop.7+0x2c4>
 8012836:	e3fffa73 	bsr      	0x8011d1c	// 8011d1c <HAL_GPIO_WritePin>
	ST7789_UnSelect();
 801283a:	3201      	movi      	r2, 1
 801283c:	ea210080 	movih      	r1, 128
 8012840:	1119      	lrw      	r0, 0x40011400	// 8012924 <ST7789_WriteString.constprop.7+0x2c4>
 8012842:	e3fffa6d 	bsr      	0x8011d1c	// 8011d1c <HAL_GPIO_WritePin>
	for (i = 0; i < font.height; i++) {
 8012846:	9860      	ld.w      	r3, (r14, 0x0)
 8012848:	e903004c 	bez      	r3, 0x80128e0	// 80128e0 <ST7789_WriteString.constprop.7+0x280>
 801284c:	2c1f      	subi      	r4, 32
 801284e:	c4648430 	mult      	r16, r4, r3
 8012852:	e9070047 	bez      	r7, 0x80128e0	// 80128e0 <ST7789_WriteString.constprop.7+0x280>
 8012856:	c6100030 	addu      	r16, r16, r16
 801285a:	9864      	ld.w      	r3, (r14, 0x10)
 801285c:	c6030030 	addu      	r16, r3, r16
 8012860:	ea0b0000 	movi      	r11, 0
			if ((b << j) & 0x8000) {
 8012864:	ea088000 	movi      	r8, 32768
	ST7789_Select();
 8012868:	118f      	lrw      	r4, 0x40011400	// 8012924 <ST7789_WriteString.constprop.7+0x2c4>
		b = font.data[(ch - 32) * font.height + i];
 801286a:	d1700445 	ldr.h      	r5, (r16, r11 << 1)
 801286e:	7555      	zexth      	r5, r5
 8012870:	ea110000 	movi      	r17, 0
 8012874:	0427      	br      	0x80128c2	// 80128c2 <ST7789_WriteString.constprop.7+0x262>
				uint8_t data[] = {color >> 8, color & 0xFF};
 8012876:	3300      	movi      	r3, 0
 8012878:	2b00      	subi      	r3, 1
 801287a:	dc6e0018 	st.b      	r3, (r14, 0x18)
 801287e:	3300      	movi      	r3, 0
 8012880:	2b1f      	subi      	r3, 32
 8012882:	dc6e0019 	st.b      	r3, (r14, 0x19)
	ST7789_Select();
 8012886:	3200      	movi      	r2, 0
 8012888:	ea210080 	movih      	r1, 128
 801288c:	6c13      	mov      	r0, r4
 801288e:	e3fffa47 	bsr      	0x8011d1c	// 8011d1c <HAL_GPIO_WritePin>
	ST7789_DC_Set();
 8012892:	3201      	movi      	r2, 1
 8012894:	ea210040 	movih      	r1, 64
 8012898:	6c13      	mov      	r0, r4
 801289a:	e3fffa41 	bsr      	0x8011d1c	// 8011d1c <HAL_GPIO_WritePin>
			HAL_SPI_Transmit(&ST7789_SPI_PORT, buff, chunk_size, HAL_MAX_DELAY);
 801289e:	3300      	movi      	r3, 0
 80128a0:	2b00      	subi      	r3, 1
 80128a2:	3202      	movi      	r2, 2
 80128a4:	1906      	addi      	r1, r14, 24
 80128a6:	6c1b      	mov      	r0, r6
 80128a8:	e3fffb3c 	bsr      	0x8011f20	// 8011f20 <HAL_SPI_Transmit>
		for (j = 0; j < font.width; j++) {
 80128ac:	e6310000 	addi      	r17, r17, 1
	ST7789_UnSelect();
 80128b0:	3201      	movi      	r2, 1
 80128b2:	ea210080 	movih      	r1, 128
 80128b6:	6c13      	mov      	r0, r4
 80128b8:	e3fffa32 	bsr      	0x8011d1c	// 8011d1c <HAL_GPIO_WritePin>
		for (j = 0; j < font.width; j++) {
 80128bc:	c4f10480 	cmpne      	r17, r7
 80128c0:	0c0b      	bf      	0x80128d6	// 80128d6 <ST7789_WriteString.constprop.7+0x276>
			if ((b << j) & 0x8000) {
 80128c2:	c6254022 	lsl      	r2, r5, r17
 80128c6:	68a0      	and      	r2, r8
 80128c8:	e922ffd7 	bnez      	r2, 0x8012876	// 8012876 <ST7789_WriteString.constprop.7+0x216>
				uint8_t data[] = {bgcolor >> 8, bgcolor & 0xFF};
 80128cc:	dd4e0018 	st.b      	r10, (r14, 0x18)
 80128d0:	dd2e0019 	st.b      	r9, (r14, 0x19)
 80128d4:	07da      	br      	0x8012888	// 8012888 <ST7789_WriteString.constprop.7+0x228>
	for (i = 0; i < font.height; i++) {
 80128d6:	e56b0000 	addi      	r11, r11, 1
 80128da:	9860      	ld.w      	r3, (r14, 0x0)
 80128dc:	64ee      	cmpne      	r11, r3
 80128de:	0bc6      	bt      	0x801286a	// 801286a <ST7789_WriteString.constprop.7+0x20a>
	ST7789_UnSelect();
 80128e0:	3201      	movi      	r2, 1
 80128e2:	ea210080 	movih      	r1, 128
 80128e6:	1010      	lrw      	r0, 0x40011400	// 8012924 <ST7789_WriteString.constprop.7+0x2c4>
 80128e8:	e3fffa1a 	bsr      	0x8011d1c	// 8011d1c <HAL_GPIO_WritePin>
 80128ec:	9861      	ld.w      	r3, (r14, 0x4)
 80128ee:	2300      	addi      	r3, 1
 80128f0:	b861      	st.w      	r3, (r14, 0x4)
	while (*str) {
 80128f2:	2b00      	subi      	r3, 1
 80128f4:	8380      	ld.b      	r4, (r3, 0x0)
 80128f6:	e924fed3 	bnez      	r4, 0x801269c	// 801269c <ST7789_WriteString.constprop.7+0x3c>
	ST7789_UnSelect();
 80128fa:	3201      	movi      	r2, 1
 80128fc:	ea210080 	movih      	r1, 128
 8012900:	1009      	lrw      	r0, 0x40011400	// 8012924 <ST7789_WriteString.constprop.7+0x2c4>
 8012902:	e3fffa0d 	bsr      	0x8011d1c	// 8011d1c <HAL_GPIO_WritePin>
}
 8012906:	1407      	addi      	r14, r14, 28
 8012908:	ebc00058 	pop      	r4-r11, r15, r16-r17
 801290c:	d86e1000 	ld.h      	r3, (r14, 0x0)
 8012910:	754d      	zexth      	r5, r3
 8012912:	9862      	ld.w      	r3, (r14, 0x8)
 8012914:	c5034850 	lsri      	r16, r3, 8
 8012918:	76cc      	zextb      	r11, r3
 801291a:	06d9      	br      	0x80126cc	// 80126cc <ST7789_WriteString.constprop.7+0x6c>
			x = 0;
 801291c:	3300      	movi      	r3, 0
 801291e:	b862      	st.w      	r3, (r14, 0x8)
 8012920:	07e6      	br      	0x80128ec	// 80128ec <ST7789_WriteString.constprop.7+0x28c>
 8012922:	0000      	.short	0x0000
 8012924:	40011400 	.long	0x40011400
 8012928:	200018b4 	.long	0x200018b4

0801292c <ST7789_SetAddressWindow>:
{
 801292c:	14d5      	push      	r4-r8, r15
 801292e:	1422      	subi      	r14, r14, 8
 8012930:	6e03      	mov      	r8, r0
 8012932:	6d87      	mov      	r6, r1
 8012934:	6dcb      	mov      	r7, r2
	ST7789_Select();
 8012936:	ea210080 	movih      	r1, 128
 801293a:	3200      	movi      	r2, 0
 801293c:	1216      	lrw      	r0, 0x40011400	// 8012a94 <ST7789_SetAddressWindow+0x168>
{
 801293e:	6d4f      	mov      	r5, r3
	ST7789_Select();
 8012940:	e3fff9ee 	bsr      	0x8011d1c	// 8011d1c <HAL_GPIO_WritePin>
 8012944:	332a      	movi      	r3, 42
	ST7789_Select();
 8012946:	3200      	movi      	r2, 0
 8012948:	ea210080 	movih      	r1, 128
 801294c:	1212      	lrw      	r0, 0x40011400	// 8012a94 <ST7789_SetAddressWindow+0x168>
 801294e:	dc6e0003 	st.b      	r3, (r14, 0x3)
 8012952:	e3fff9e5 	bsr      	0x8011d1c	// 8011d1c <HAL_GPIO_WritePin>
	ST7789_DC_Clr();
 8012956:	3200      	movi      	r2, 0
 8012958:	ea210040 	movih      	r1, 64
 801295c:	120e      	lrw      	r0, 0x40011400	// 8012a94 <ST7789_SetAddressWindow+0x168>
 801295e:	e3fff9df 	bsr      	0x8011d1c	// 8011d1c <HAL_GPIO_WritePin>
	HAL_SPI_Transmit(&ST7789_SPI_PORT, &cmd, sizeof(cmd), HAL_MAX_DELAY);
 8012962:	128e      	lrw      	r4, 0x200018b4	// 8012a98 <ST7789_SetAddressWindow+0x16c>
 8012964:	3300      	movi      	r3, 0
 8012966:	2b00      	subi      	r3, 1
 8012968:	e42e0002 	addi      	r1, r14, 3
 801296c:	3201      	movi      	r2, 1
 801296e:	6c13      	mov      	r0, r4
 8012970:	e3fffad8 	bsr      	0x8011f20	// 8011f20 <HAL_SPI_Transmit>
	ST7789_UnSelect();
 8012974:	3201      	movi      	r2, 1
 8012976:	ea210080 	movih      	r1, 128
 801297a:	1207      	lrw      	r0, 0x40011400	// 8012a94 <ST7789_SetAddressWindow+0x168>
 801297c:	e3fff9d0 	bsr      	0x8011d1c	// 8011d1c <HAL_GPIO_WritePin>
		uint8_t data[] = {x_start >> 8, x_start & 0xFF, x_end >> 8, x_end & 0xFF};
 8012980:	c5084843 	lsri      	r3, r8, 8
 8012984:	dc6e0004 	st.b      	r3, (r14, 0x4)
	ST7789_Select();
 8012988:	3200      	movi      	r2, 0
		uint8_t data[] = {x_start >> 8, x_start & 0xFF, x_end >> 8, x_end & 0xFF};
 801298a:	4f68      	lsri      	r3, r7, 8
	ST7789_Select();
 801298c:	ea210080 	movih      	r1, 128
 8012990:	1201      	lrw      	r0, 0x40011400	// 8012a94 <ST7789_SetAddressWindow+0x168>
		uint8_t data[] = {x_start >> 8, x_start & 0xFF, x_end >> 8, x_end & 0xFF};
 8012992:	dc6e0006 	st.b      	r3, (r14, 0x6)
 8012996:	dd0e0005 	st.b      	r8, (r14, 0x5)
 801299a:	dcee0007 	st.b      	r7, (r14, 0x7)
	ST7789_Select();
 801299e:	e3fff9bf 	bsr      	0x8011d1c	// 8011d1c <HAL_GPIO_WritePin>
	ST7789_DC_Set();
 80129a2:	3201      	movi      	r2, 1
 80129a4:	ea210040 	movih      	r1, 64
 80129a8:	111b      	lrw      	r0, 0x40011400	// 8012a94 <ST7789_SetAddressWindow+0x168>
 80129aa:	e3fff9b9 	bsr      	0x8011d1c	// 8011d1c <HAL_GPIO_WritePin>
			HAL_SPI_Transmit(&ST7789_SPI_PORT, buff, chunk_size, HAL_MAX_DELAY);
 80129ae:	3204      	movi      	r2, 4
 80129b0:	3300      	movi      	r3, 0
 80129b2:	c44e0021 	addu      	r1, r14, r2
 80129b6:	2b00      	subi      	r3, 1
 80129b8:	6c13      	mov      	r0, r4
 80129ba:	e3fffab3 	bsr      	0x8011f20	// 8011f20 <HAL_SPI_Transmit>
	ST7789_UnSelect();
 80129be:	3201      	movi      	r2, 1
 80129c0:	ea210080 	movih      	r1, 128
 80129c4:	1114      	lrw      	r0, 0x40011400	// 8012a94 <ST7789_SetAddressWindow+0x168>
 80129c6:	e3fff9ab 	bsr      	0x8011d1c	// 8011d1c <HAL_GPIO_WritePin>
 80129ca:	332b      	movi      	r3, 43
	ST7789_Select();
 80129cc:	3200      	movi      	r2, 0
 80129ce:	ea210080 	movih      	r1, 128
 80129d2:	1111      	lrw      	r0, 0x40011400	// 8012a94 <ST7789_SetAddressWindow+0x168>
 80129d4:	dc6e0002 	st.b      	r3, (r14, 0x2)
 80129d8:	e3fff9a2 	bsr      	0x8011d1c	// 8011d1c <HAL_GPIO_WritePin>
	ST7789_DC_Clr();
 80129dc:	3200      	movi      	r2, 0
 80129de:	ea210040 	movih      	r1, 64
 80129e2:	110d      	lrw      	r0, 0x40011400	// 8012a94 <ST7789_SetAddressWindow+0x168>
 80129e4:	e3fff99c 	bsr      	0x8011d1c	// 8011d1c <HAL_GPIO_WritePin>
	HAL_SPI_Transmit(&ST7789_SPI_PORT, &cmd, sizeof(cmd), HAL_MAX_DELAY);
 80129e8:	3300      	movi      	r3, 0
 80129ea:	2b00      	subi      	r3, 1
 80129ec:	e42e0001 	addi      	r1, r14, 2
 80129f0:	3201      	movi      	r2, 1
 80129f2:	6c13      	mov      	r0, r4
 80129f4:	e3fffa96 	bsr      	0x8011f20	// 8011f20 <HAL_SPI_Transmit>
	ST7789_UnSelect();
 80129f8:	3201      	movi      	r2, 1
 80129fa:	ea210080 	movih      	r1, 128
 80129fe:	1106      	lrw      	r0, 0x40011400	// 8012a94 <ST7789_SetAddressWindow+0x168>
 8012a00:	e3fff98e 	bsr      	0x8011d1c	// 8011d1c <HAL_GPIO_WritePin>
		uint8_t data[] = {y_start >> 8, y_start & 0xFF, y_end >> 8, y_end & 0xFF};
 8012a04:	4e68      	lsri      	r3, r6, 8
 8012a06:	dc6e0004 	st.b      	r3, (r14, 0x4)
	ST7789_Select();
 8012a0a:	3200      	movi      	r2, 0
		uint8_t data[] = {y_start >> 8, y_start & 0xFF, y_end >> 8, y_end & 0xFF};
 8012a0c:	4d68      	lsri      	r3, r5, 8
	ST7789_Select();
 8012a0e:	ea210080 	movih      	r1, 128
 8012a12:	1101      	lrw      	r0, 0x40011400	// 8012a94 <ST7789_SetAddressWindow+0x168>
		uint8_t data[] = {y_start >> 8, y_start & 0xFF, y_end >> 8, y_end & 0xFF};
 8012a14:	dc6e0006 	st.b      	r3, (r14, 0x6)
 8012a18:	dcce0005 	st.b      	r6, (r14, 0x5)
 8012a1c:	dcae0007 	st.b      	r5, (r14, 0x7)
	ST7789_Select();
 8012a20:	e3fff97e 	bsr      	0x8011d1c	// 8011d1c <HAL_GPIO_WritePin>
	ST7789_DC_Set();
 8012a24:	3201      	movi      	r2, 1
 8012a26:	ea210040 	movih      	r1, 64
 8012a2a:	101b      	lrw      	r0, 0x40011400	// 8012a94 <ST7789_SetAddressWindow+0x168>
 8012a2c:	e3fff978 	bsr      	0x8011d1c	// 8011d1c <HAL_GPIO_WritePin>
			HAL_SPI_Transmit(&ST7789_SPI_PORT, buff, chunk_size, HAL_MAX_DELAY);
 8012a30:	3204      	movi      	r2, 4
 8012a32:	3300      	movi      	r3, 0
 8012a34:	c44e0021 	addu      	r1, r14, r2
 8012a38:	2b00      	subi      	r3, 1
 8012a3a:	6c13      	mov      	r0, r4
 8012a3c:	e3fffa72 	bsr      	0x8011f20	// 8011f20 <HAL_SPI_Transmit>
	ST7789_UnSelect();
 8012a40:	3201      	movi      	r2, 1
 8012a42:	ea210080 	movih      	r1, 128
 8012a46:	1014      	lrw      	r0, 0x40011400	// 8012a94 <ST7789_SetAddressWindow+0x168>
 8012a48:	e3fff96a 	bsr      	0x8011d1c	// 8011d1c <HAL_GPIO_WritePin>
 8012a4c:	332c      	movi      	r3, 44
	ST7789_Select();
 8012a4e:	3200      	movi      	r2, 0
 8012a50:	ea210080 	movih      	r1, 128
 8012a54:	1010      	lrw      	r0, 0x40011400	// 8012a94 <ST7789_SetAddressWindow+0x168>
 8012a56:	dc6e0004 	st.b      	r3, (r14, 0x4)
 8012a5a:	e3fff961 	bsr      	0x8011d1c	// 8011d1c <HAL_GPIO_WritePin>
	ST7789_DC_Clr();
 8012a5e:	3200      	movi      	r2, 0
 8012a60:	ea210040 	movih      	r1, 64
 8012a64:	100c      	lrw      	r0, 0x40011400	// 8012a94 <ST7789_SetAddressWindow+0x168>
 8012a66:	e3fff95b 	bsr      	0x8011d1c	// 8011d1c <HAL_GPIO_WritePin>
	HAL_SPI_Transmit(&ST7789_SPI_PORT, &cmd, sizeof(cmd), HAL_MAX_DELAY);
 8012a6a:	3300      	movi      	r3, 0
 8012a6c:	2b00      	subi      	r3, 1
 8012a6e:	1901      	addi      	r1, r14, 4
 8012a70:	3201      	movi      	r2, 1
 8012a72:	6c13      	mov      	r0, r4
 8012a74:	e3fffa56 	bsr      	0x8011f20	// 8011f20 <HAL_SPI_Transmit>
	ST7789_UnSelect();
 8012a78:	3201      	movi      	r2, 1
 8012a7a:	ea210080 	movih      	r1, 128
 8012a7e:	1006      	lrw      	r0, 0x40011400	// 8012a94 <ST7789_SetAddressWindow+0x168>
 8012a80:	e3fff94e 	bsr      	0x8011d1c	// 8011d1c <HAL_GPIO_WritePin>
	ST7789_UnSelect();
 8012a84:	3201      	movi      	r2, 1
 8012a86:	ea210080 	movih      	r1, 128
 8012a8a:	1003      	lrw      	r0, 0x40011400	// 8012a94 <ST7789_SetAddressWindow+0x168>
 8012a8c:	e3fff948 	bsr      	0x8011d1c	// 8011d1c <HAL_GPIO_WritePin>
}
 8012a90:	1402      	addi      	r14, r14, 8
 8012a92:	1495      	pop      	r4-r8, r15
 8012a94:	40011400 	.long	0x40011400
 8012a98:	200018b4 	.long	0x200018b4

08012a9c <ST7789_Fill_Color>:
{
 8012a9c:	14d6      	push      	r4-r9, r15
 8012a9e:	1421      	subi      	r14, r14, 4
	ST7789_SetAddressWindow(0, 0, ST7789_WIDTH - 1, ST7789_HEIGHT - 1);
 8012aa0:	33ef      	movi      	r3, 239
 8012aa2:	3100      	movi      	r1, 0
{
 8012aa4:	6d83      	mov      	r6, r0
	ST7789_SetAddressWindow(0, 0, ST7789_WIDTH - 1, ST7789_HEIGHT - 1);
 8012aa6:	6c8f      	mov      	r2, r3
 8012aa8:	6c07      	mov      	r0, r1
 8012aaa:	e3ffff41 	bsr      	0x801292c	// 801292c <ST7789_SetAddressWindow>
	ST7789_Select();
 8012aae:	3200      	movi      	r2, 0
 8012ab0:	ea210080 	movih      	r1, 128
 8012ab4:	101d      	lrw      	r0, 0x40011400	// 8012b28 <ST7789_Fill_Color+0x8c>
 8012ab6:	c5064848 	lsri      	r8, r6, 8
 8012aba:	e3fff931 	bsr      	0x8011d1c	// 8011d1c <HAL_GPIO_WritePin>
 8012abe:	7598      	zextb      	r6, r6
 8012ac0:	ea0900f0 	movi      	r9, 240
	ST7789_Select();
 8012ac4:	10b9      	lrw      	r5, 0x40011400	// 8012b28 <ST7789_Fill_Color+0x8c>
			HAL_SPI_Transmit(&ST7789_SPI_PORT, buff, chunk_size, HAL_MAX_DELAY);
 8012ac6:	10fa      	lrw      	r7, 0x200018b4	// 8012b2c <ST7789_Fill_Color+0x90>
{
 8012ac8:	34f0      	movi      	r4, 240
	ST7789_Select();
 8012aca:	3200      	movi      	r2, 0
 8012acc:	ea210080 	movih      	r1, 128
 8012ad0:	6c17      	mov      	r0, r5
					uint8_t data[] = {color >> 8, color & 0xFF};
 8012ad2:	dd0e0000 	st.b      	r8, (r14, 0x0)
 8012ad6:	dcce0001 	st.b      	r6, (r14, 0x1)
	ST7789_Select();
 8012ada:	e3fff921 	bsr      	0x8011d1c	// 8011d1c <HAL_GPIO_WritePin>
	ST7789_DC_Set();
 8012ade:	3201      	movi      	r2, 1
 8012ae0:	ea210040 	movih      	r1, 64
 8012ae4:	6c17      	mov      	r0, r5
 8012ae6:	e3fff91b 	bsr      	0x8011d1c	// 8011d1c <HAL_GPIO_WritePin>
 8012aea:	2c00      	subi      	r4, 1
			HAL_SPI_Transmit(&ST7789_SPI_PORT, buff, chunk_size, HAL_MAX_DELAY);
 8012aec:	3300      	movi      	r3, 0
 8012aee:	2b00      	subi      	r3, 1
 8012af0:	3202      	movi      	r2, 2
 8012af2:	6c7b      	mov      	r1, r14
 8012af4:	6c1f      	mov      	r0, r7
 8012af6:	7511      	zexth      	r4, r4
 8012af8:	e3fffa14 	bsr      	0x8011f20	// 8011f20 <HAL_SPI_Transmit>
	ST7789_UnSelect();
 8012afc:	3201      	movi      	r2, 1
 8012afe:	ea210080 	movih      	r1, 128
 8012b02:	6c17      	mov      	r0, r5
 8012b04:	e3fff90c 	bsr      	0x8011d1c	// 8011d1c <HAL_GPIO_WritePin>
				for (j = 0; j < ST7789_HEIGHT; j++) {
 8012b08:	e924ffe1 	bnez      	r4, 0x8012aca	// 8012aca <ST7789_Fill_Color+0x2e>
 8012b0c:	e5291000 	subi      	r9, r9, 1
 8012b10:	7665      	zexth      	r9, r9
		for (i = 0; i < ST7789_WIDTH; i++)
 8012b12:	e929ffdb 	bnez      	r9, 0x8012ac8	// 8012ac8 <ST7789_Fill_Color+0x2c>
	ST7789_UnSelect();
 8012b16:	3201      	movi      	r2, 1
 8012b18:	ea210080 	movih      	r1, 128
 8012b1c:	1003      	lrw      	r0, 0x40011400	// 8012b28 <ST7789_Fill_Color+0x8c>
 8012b1e:	e3fff8ff 	bsr      	0x8011d1c	// 8011d1c <HAL_GPIO_WritePin>
}
 8012b22:	1401      	addi      	r14, r14, 4
 8012b24:	1496      	pop      	r4-r9, r15
 8012b26:	0000      	.short	0x0000
 8012b28:	40011400 	.long	0x40011400
 8012b2c:	200018b4 	.long	0x200018b4

08012b30 <ST7789_Init>:
{
 8012b30:	ebe00058 	push      	r4-r11, r15, r16-r17
 8012b34:	142c      	subi      	r14, r14, 48
	HAL_Delay(25);
 8012b36:	3019      	movi      	r0, 25
 8012b38:	e3fff992 	bsr      	0x8011e5c	// 8011e5c <HAL_Delay>
    ST7789_RST_Clr();
 8012b3c:	3200      	movi      	r2, 0
 8012b3e:	ea210020 	movih      	r1, 32
 8012b42:	ea800214 	lrw      	r0, 0x40011400	// 8013390 <ST7789_Init+0x860>
 8012b46:	e3fff8eb 	bsr      	0x8011d1c	// 8011d1c <HAL_GPIO_WritePin>
    HAL_Delay(25);
 8012b4a:	3019      	movi      	r0, 25
 8012b4c:	e3fff988 	bsr      	0x8011e5c	// 8011e5c <HAL_Delay>
    ST7789_RST_Set();
 8012b50:	3201      	movi      	r2, 1
 8012b52:	ea210020 	movih      	r1, 32
 8012b56:	ea80020f 	lrw      	r0, 0x40011400	// 8013390 <ST7789_Init+0x860>
 8012b5a:	e3fff8e1 	bsr      	0x8011d1c	// 8011d1c <HAL_GPIO_WritePin>
    HAL_Delay(50);
 8012b5e:	3032      	movi      	r0, 50
 8012b60:	e3fff97e 	bsr      	0x8011e5c	// 8011e5c <HAL_Delay>
 8012b64:	333a      	movi      	r3, 58
	ST7789_Select();
 8012b66:	3200      	movi      	r2, 0
 8012b68:	ea210080 	movih      	r1, 128
 8012b6c:	ea800209 	lrw      	r0, 0x40011400	// 8013390 <ST7789_Init+0x860>
 8012b70:	dc6e001f 	st.b      	r3, (r14, 0x1f)
 8012b74:	e3fff8d4 	bsr      	0x8011d1c	// 8011d1c <HAL_GPIO_WritePin>
	ST7789_DC_Clr();
 8012b78:	3200      	movi      	r2, 0
 8012b7a:	ea210040 	movih      	r1, 64
 8012b7e:	ea800205 	lrw      	r0, 0x40011400	// 8013390 <ST7789_Init+0x860>
	HAL_SPI_Transmit(&ST7789_SPI_PORT, &cmd, sizeof(cmd), HAL_MAX_DELAY);
 8012b82:	ea840205 	lrw      	r4, 0x200018b4	// 8013394 <ST7789_Init+0x864>
	ST7789_DC_Clr();
 8012b86:	e3fff8cb 	bsr      	0x8011d1c	// 8011d1c <HAL_GPIO_WritePin>
	HAL_SPI_Transmit(&ST7789_SPI_PORT, &cmd, sizeof(cmd), HAL_MAX_DELAY);
 8012b8a:	3300      	movi      	r3, 0
 8012b8c:	2b00      	subi      	r3, 1
 8012b8e:	e42e001e 	addi      	r1, r14, 31
 8012b92:	3201      	movi      	r2, 1
 8012b94:	6c13      	mov      	r0, r4
 8012b96:	e3fff9c5 	bsr      	0x8011f20	// 8011f20 <HAL_SPI_Transmit>
	ST7789_UnSelect();
 8012b9a:	3201      	movi      	r2, 1
 8012b9c:	ea210080 	movih      	r1, 128
 8012ba0:	ea8001fc 	lrw      	r0, 0x40011400	// 8013390 <ST7789_Init+0x860>
 8012ba4:	e3fff8bc 	bsr      	0x8011d1c	// 8011d1c <HAL_GPIO_WritePin>
 8012ba8:	3355      	movi      	r3, 85
	ST7789_Select();
 8012baa:	3200      	movi      	r2, 0
 8012bac:	ea210080 	movih      	r1, 128
 8012bb0:	ea8001f8 	lrw      	r0, 0x40011400	// 8013390 <ST7789_Init+0x860>
 8012bb4:	dc6e001e 	st.b      	r3, (r14, 0x1e)
 8012bb8:	e3fff8b2 	bsr      	0x8011d1c	// 8011d1c <HAL_GPIO_WritePin>
	ST7789_DC_Set();
 8012bbc:	3201      	movi      	r2, 1
 8012bbe:	ea210040 	movih      	r1, 64
 8012bc2:	ea8001f4 	lrw      	r0, 0x40011400	// 8013390 <ST7789_Init+0x860>
 8012bc6:	e3fff8ab 	bsr      	0x8011d1c	// 8011d1c <HAL_GPIO_WritePin>
	HAL_SPI_Transmit(&ST7789_SPI_PORT, &data, sizeof(data), HAL_MAX_DELAY);
 8012bca:	3300      	movi      	r3, 0
 8012bcc:	2b00      	subi      	r3, 1
 8012bce:	e42e001d 	addi      	r1, r14, 30
 8012bd2:	3201      	movi      	r2, 1
 8012bd4:	6c13      	mov      	r0, r4
 8012bd6:	e3fff9a5 	bsr      	0x8011f20	// 8011f20 <HAL_SPI_Transmit>
	ST7789_UnSelect();
 8012bda:	3201      	movi      	r2, 1
 8012bdc:	ea210080 	movih      	r1, 128
 8012be0:	ea8001ec 	lrw      	r0, 0x40011400	// 8013390 <ST7789_Init+0x860>
 8012be4:	e3fff89c 	bsr      	0x8011d1c	// 8011d1c <HAL_GPIO_WritePin>
 8012be8:	3300      	movi      	r3, 0
 8012bea:	2b4d      	subi      	r3, 78
	ST7789_Select();
 8012bec:	3200      	movi      	r2, 0
 8012bee:	ea210080 	movih      	r1, 128
 8012bf2:	ea8001e8 	lrw      	r0, 0x40011400	// 8013390 <ST7789_Init+0x860>
 8012bf6:	dc6e001d 	st.b      	r3, (r14, 0x1d)
 8012bfa:	e3fff891 	bsr      	0x8011d1c	// 8011d1c <HAL_GPIO_WritePin>
	ST7789_DC_Clr();
 8012bfe:	3200      	movi      	r2, 0
 8012c00:	ea210040 	movih      	r1, 64
 8012c04:	ea8001e3 	lrw      	r0, 0x40011400	// 8013390 <ST7789_Init+0x860>
 8012c08:	e3fff88a 	bsr      	0x8011d1c	// 8011d1c <HAL_GPIO_WritePin>
	HAL_SPI_Transmit(&ST7789_SPI_PORT, &cmd, sizeof(cmd), HAL_MAX_DELAY);
 8012c0c:	3300      	movi      	r3, 0
 8012c0e:	2b00      	subi      	r3, 1
 8012c10:	e42e001c 	addi      	r1, r14, 29
 8012c14:	3201      	movi      	r2, 1
 8012c16:	6c13      	mov      	r0, r4
 8012c18:	e3fff984 	bsr      	0x8011f20	// 8011f20 <HAL_SPI_Transmit>
	ST7789_UnSelect();
 8012c1c:	3201      	movi      	r2, 1
 8012c1e:	ea210080 	movih      	r1, 128
 8012c22:	ea8001dc 	lrw      	r0, 0x40011400	// 8013390 <ST7789_Init+0x860>
 8012c26:	e3fff87b 	bsr      	0x8011d1c	// 8011d1c <HAL_GPIO_WritePin>
		uint8_t data[] = {0x0C, 0x0C, 0x00, 0x33, 0x33};
 8012c2a:	ea09000c 	movi      	r9, 12
 8012c2e:	3333      	movi      	r3, 51
 8012c30:	3500      	movi      	r5, 0
	ST7789_Select();
 8012c32:	3200      	movi      	r2, 0
 8012c34:	ea210080 	movih      	r1, 128
 8012c38:	ea8001d6 	lrw      	r0, 0x40011400	// 8013390 <ST7789_Init+0x860>
		uint8_t data[] = {0x0C, 0x0C, 0x00, 0x33, 0x33};
 8012c3c:	dc6e0023 	st.b      	r3, (r14, 0x23)
 8012c40:	dc6e0024 	st.b      	r3, (r14, 0x24)
 8012c44:	dcae0022 	st.b      	r5, (r14, 0x22)
 8012c48:	dd2e0020 	st.b      	r9, (r14, 0x20)
 8012c4c:	dd2e0021 	st.b      	r9, (r14, 0x21)
	ST7789_Select();
 8012c50:	e3fff866 	bsr      	0x8011d1c	// 8011d1c <HAL_GPIO_WritePin>
	ST7789_DC_Set();
 8012c54:	3201      	movi      	r2, 1
 8012c56:	ea210040 	movih      	r1, 64
 8012c5a:	ea8001ce 	lrw      	r0, 0x40011400	// 8013390 <ST7789_Init+0x860>
 8012c5e:	e3fff85f 	bsr      	0x8011d1c	// 8011d1c <HAL_GPIO_WritePin>
			HAL_SPI_Transmit(&ST7789_SPI_PORT, buff, chunk_size, HAL_MAX_DELAY);
 8012c62:	3300      	movi      	r3, 0
 8012c64:	2b00      	subi      	r3, 1
 8012c66:	1908      	addi      	r1, r14, 32
 8012c68:	3205      	movi      	r2, 5
 8012c6a:	6c13      	mov      	r0, r4
 8012c6c:	e3fff95a 	bsr      	0x8011f20	// 8011f20 <HAL_SPI_Transmit>
	ST7789_UnSelect();
 8012c70:	3201      	movi      	r2, 1
 8012c72:	ea210080 	movih      	r1, 128
 8012c76:	ea8001c7 	lrw      	r0, 0x40011400	// 8013390 <ST7789_Init+0x860>
 8012c7a:	e3fff851 	bsr      	0x8011d1c	// 8011d1c <HAL_GPIO_WritePin>
 8012c7e:	3336      	movi      	r3, 54
	ST7789_Select();
 8012c80:	3200      	movi      	r2, 0
 8012c82:	ea210080 	movih      	r1, 128
 8012c86:	ea8001c3 	lrw      	r0, 0x40011400	// 8013390 <ST7789_Init+0x860>
 8012c8a:	dc6e001c 	st.b      	r3, (r14, 0x1c)
 8012c8e:	e3fff847 	bsr      	0x8011d1c	// 8011d1c <HAL_GPIO_WritePin>
	ST7789_DC_Clr();
 8012c92:	3200      	movi      	r2, 0
 8012c94:	ea210040 	movih      	r1, 64
 8012c98:	ea8001be 	lrw      	r0, 0x40011400	// 8013390 <ST7789_Init+0x860>
 8012c9c:	e3fff840 	bsr      	0x8011d1c	// 8011d1c <HAL_GPIO_WritePin>
	HAL_SPI_Transmit(&ST7789_SPI_PORT, &cmd, sizeof(cmd), HAL_MAX_DELAY);
 8012ca0:	3300      	movi      	r3, 0
 8012ca2:	2b00      	subi      	r3, 1
 8012ca4:	1907      	addi      	r1, r14, 28
 8012ca6:	3201      	movi      	r2, 1
 8012ca8:	6c13      	mov      	r0, r4
 8012caa:	e3fff93b 	bsr      	0x8011f20	// 8011f20 <HAL_SPI_Transmit>
	ST7789_UnSelect();
 8012cae:	3201      	movi      	r2, 1
 8012cb0:	ea210080 	movih      	r1, 128
 8012cb4:	ea8001b7 	lrw      	r0, 0x40011400	// 8013390 <ST7789_Init+0x860>
 8012cb8:	e3fff832 	bsr      	0x8011d1c	// 8011d1c <HAL_GPIO_WritePin>
	ST7789_Select();
 8012cbc:	3200      	movi      	r2, 0
 8012cbe:	ea210080 	movih      	r1, 128
 8012cc2:	ea8001b4 	lrw      	r0, 0x40011400	// 8013390 <ST7789_Init+0x860>
 8012cc6:	dcae001b 	st.b      	r5, (r14, 0x1b)
 8012cca:	e3fff829 	bsr      	0x8011d1c	// 8011d1c <HAL_GPIO_WritePin>
	ST7789_DC_Set();
 8012cce:	3201      	movi      	r2, 1
 8012cd0:	ea210040 	movih      	r1, 64
 8012cd4:	ea8001af 	lrw      	r0, 0x40011400	// 8013390 <ST7789_Init+0x860>
 8012cd8:	e3fff822 	bsr      	0x8011d1c	// 8011d1c <HAL_GPIO_WritePin>
	HAL_SPI_Transmit(&ST7789_SPI_PORT, &data, sizeof(data), HAL_MAX_DELAY);
 8012cdc:	3300      	movi      	r3, 0
 8012cde:	2b00      	subi      	r3, 1
 8012ce0:	e42e001a 	addi      	r1, r14, 27
 8012ce4:	3201      	movi      	r2, 1
 8012ce6:	6c13      	mov      	r0, r4
 8012ce8:	e3fff91c 	bsr      	0x8011f20	// 8011f20 <HAL_SPI_Transmit>
	ST7789_UnSelect();
 8012cec:	3201      	movi      	r2, 1
 8012cee:	ea210080 	movih      	r1, 128
 8012cf2:	ea8001a8 	lrw      	r0, 0x40011400	// 8013390 <ST7789_Init+0x860>
 8012cf6:	e3fff813 	bsr      	0x8011d1c	// 8011d1c <HAL_GPIO_WritePin>
 8012cfa:	3300      	movi      	r3, 0
 8012cfc:	2b48      	subi      	r3, 73
	ST7789_Select();
 8012cfe:	3200      	movi      	r2, 0
 8012d00:	ea210080 	movih      	r1, 128
 8012d04:	ea8001a3 	lrw      	r0, 0x40011400	// 8013390 <ST7789_Init+0x860>
 8012d08:	dc6e001a 	st.b      	r3, (r14, 0x1a)
 8012d0c:	e3fff808 	bsr      	0x8011d1c	// 8011d1c <HAL_GPIO_WritePin>
	ST7789_DC_Clr();
 8012d10:	3200      	movi      	r2, 0
 8012d12:	ea210040 	movih      	r1, 64
 8012d16:	ea80019f 	lrw      	r0, 0x40011400	// 8013390 <ST7789_Init+0x860>
 8012d1a:	e3fff801 	bsr      	0x8011d1c	// 8011d1c <HAL_GPIO_WritePin>
	HAL_SPI_Transmit(&ST7789_SPI_PORT, &cmd, sizeof(cmd), HAL_MAX_DELAY);
 8012d1e:	3300      	movi      	r3, 0
 8012d20:	2b00      	subi      	r3, 1
 8012d22:	e42e0019 	addi      	r1, r14, 26
 8012d26:	3201      	movi      	r2, 1
 8012d28:	6c13      	mov      	r0, r4
 8012d2a:	e3fff8fb 	bsr      	0x8011f20	// 8011f20 <HAL_SPI_Transmit>
	ST7789_UnSelect();
 8012d2e:	3201      	movi      	r2, 1
 8012d30:	ea210080 	movih      	r1, 128
 8012d34:	ea800197 	lrw      	r0, 0x40011400	// 8013390 <ST7789_Init+0x860>
 8012d38:	e3fff7f2 	bsr      	0x8011d1c	// 8011d1c <HAL_GPIO_WritePin>
 8012d3c:	3335      	movi      	r3, 53
	ST7789_Select();
 8012d3e:	3200      	movi      	r2, 0
 8012d40:	ea210080 	movih      	r1, 128
 8012d44:	ea800193 	lrw      	r0, 0x40011400	// 8013390 <ST7789_Init+0x860>
 8012d48:	dc6e0019 	st.b      	r3, (r14, 0x19)
 8012d4c:	e3fff7e8 	bsr      	0x8011d1c	// 8011d1c <HAL_GPIO_WritePin>
	ST7789_DC_Set();
 8012d50:	3201      	movi      	r2, 1
 8012d52:	ea210040 	movih      	r1, 64
 8012d56:	ea80018f 	lrw      	r0, 0x40011400	// 8013390 <ST7789_Init+0x860>
 8012d5a:	e3fff7e1 	bsr      	0x8011d1c	// 8011d1c <HAL_GPIO_WritePin>
	HAL_SPI_Transmit(&ST7789_SPI_PORT, &data, sizeof(data), HAL_MAX_DELAY);
 8012d5e:	3300      	movi      	r3, 0
 8012d60:	2b00      	subi      	r3, 1
 8012d62:	e42e0018 	addi      	r1, r14, 25
 8012d66:	3201      	movi      	r2, 1
 8012d68:	6c13      	mov      	r0, r4
 8012d6a:	e3fff8db 	bsr      	0x8011f20	// 8011f20 <HAL_SPI_Transmit>
	ST7789_UnSelect();
 8012d6e:	3201      	movi      	r2, 1
 8012d70:	ea210080 	movih      	r1, 128
 8012d74:	ea800187 	lrw      	r0, 0x40011400	// 8013390 <ST7789_Init+0x860>
 8012d78:	e3fff7d2 	bsr      	0x8011d1c	// 8011d1c <HAL_GPIO_WritePin>
 8012d7c:	3300      	movi      	r3, 0
 8012d7e:	2b44      	subi      	r3, 69
	ST7789_Select();
 8012d80:	3200      	movi      	r2, 0
 8012d82:	ea210080 	movih      	r1, 128
 8012d86:	ea800183 	lrw      	r0, 0x40011400	// 8013390 <ST7789_Init+0x860>
 8012d8a:	dc6e0018 	st.b      	r3, (r14, 0x18)
 8012d8e:	e3fff7c7 	bsr      	0x8011d1c	// 8011d1c <HAL_GPIO_WritePin>
	ST7789_DC_Clr();
 8012d92:	3200      	movi      	r2, 0
 8012d94:	ea210040 	movih      	r1, 64
 8012d98:	ea80017e 	lrw      	r0, 0x40011400	// 8013390 <ST7789_Init+0x860>
 8012d9c:	e3fff7c0 	bsr      	0x8011d1c	// 8011d1c <HAL_GPIO_WritePin>
	HAL_SPI_Transmit(&ST7789_SPI_PORT, &cmd, sizeof(cmd), HAL_MAX_DELAY);
 8012da0:	3300      	movi      	r3, 0
 8012da2:	2b00      	subi      	r3, 1
 8012da4:	1906      	addi      	r1, r14, 24
 8012da6:	3201      	movi      	r2, 1
 8012da8:	6c13      	mov      	r0, r4
 8012daa:	e3fff8bb 	bsr      	0x8011f20	// 8011f20 <HAL_SPI_Transmit>
	ST7789_UnSelect();
 8012dae:	3201      	movi      	r2, 1
 8012db0:	ea210080 	movih      	r1, 128
 8012db4:	ea800177 	lrw      	r0, 0x40011400	// 8013390 <ST7789_Init+0x860>
 8012db8:	e3fff7b2 	bsr      	0x8011d1c	// 8011d1c <HAL_GPIO_WritePin>
 8012dbc:	3319      	movi      	r3, 25
	ST7789_Select();
 8012dbe:	3200      	movi      	r2, 0
 8012dc0:	ea210080 	movih      	r1, 128
 8012dc4:	ea800173 	lrw      	r0, 0x40011400	// 8013390 <ST7789_Init+0x860>
 8012dc8:	dc6e0017 	st.b      	r3, (r14, 0x17)
 8012dcc:	e3fff7a8 	bsr      	0x8011d1c	// 8011d1c <HAL_GPIO_WritePin>
	ST7789_DC_Set();
 8012dd0:	3201      	movi      	r2, 1
 8012dd2:	ea210040 	movih      	r1, 64
 8012dd6:	ea80016f 	lrw      	r0, 0x40011400	// 8013390 <ST7789_Init+0x860>
 8012dda:	e3fff7a1 	bsr      	0x8011d1c	// 8011d1c <HAL_GPIO_WritePin>
	HAL_SPI_Transmit(&ST7789_SPI_PORT, &data, sizeof(data), HAL_MAX_DELAY);
 8012dde:	3300      	movi      	r3, 0
 8012de0:	2b00      	subi      	r3, 1
 8012de2:	e42e0016 	addi      	r1, r14, 23
 8012de6:	3201      	movi      	r2, 1
 8012de8:	6c13      	mov      	r0, r4
 8012dea:	e3fff89b 	bsr      	0x8011f20	// 8011f20 <HAL_SPI_Transmit>
	ST7789_UnSelect();
 8012dee:	3201      	movi      	r2, 1
 8012df0:	ea210080 	movih      	r1, 128
 8012df4:	ea800167 	lrw      	r0, 0x40011400	// 8013390 <ST7789_Init+0x860>
 8012df8:	e3fff792 	bsr      	0x8011d1c	// 8011d1c <HAL_GPIO_WritePin>
 8012dfc:	3300      	movi      	r3, 0
 8012dfe:	2b3f      	subi      	r3, 64
	ST7789_Select();
 8012e00:	3200      	movi      	r2, 0
 8012e02:	ea210080 	movih      	r1, 128
 8012e06:	ea800163 	lrw      	r0, 0x40011400	// 8013390 <ST7789_Init+0x860>
 8012e0a:	dc6e0016 	st.b      	r3, (r14, 0x16)
 8012e0e:	e3fff787 	bsr      	0x8011d1c	// 8011d1c <HAL_GPIO_WritePin>
	ST7789_DC_Clr();
 8012e12:	3200      	movi      	r2, 0
 8012e14:	ea210040 	movih      	r1, 64
 8012e18:	ea80015e 	lrw      	r0, 0x40011400	// 8013390 <ST7789_Init+0x860>
 8012e1c:	e3fff780 	bsr      	0x8011d1c	// 8011d1c <HAL_GPIO_WritePin>
	HAL_SPI_Transmit(&ST7789_SPI_PORT, &cmd, sizeof(cmd), HAL_MAX_DELAY);
 8012e20:	3300      	movi      	r3, 0
 8012e22:	2b00      	subi      	r3, 1
 8012e24:	e42e0015 	addi      	r1, r14, 22
 8012e28:	3201      	movi      	r2, 1
 8012e2a:	6c13      	mov      	r0, r4
 8012e2c:	e3fff87a 	bsr      	0x8011f20	// 8011f20 <HAL_SPI_Transmit>
	ST7789_UnSelect();
 8012e30:	3201      	movi      	r2, 1
 8012e32:	ea210080 	movih      	r1, 128
 8012e36:	ea800157 	lrw      	r0, 0x40011400	// 8013390 <ST7789_Init+0x860>
 8012e3a:	e3fff771 	bsr      	0x8011d1c	// 8011d1c <HAL_GPIO_WritePin>
 8012e3e:	ea11002c 	movi      	r17, 44
	ST7789_Select();
 8012e42:	3200      	movi      	r2, 0
 8012e44:	ea210080 	movih      	r1, 128
 8012e48:	ea800152 	lrw      	r0, 0x40011400	// 8013390 <ST7789_Init+0x860>
 8012e4c:	de2e0015 	st.b      	r17, (r14, 0x15)
 8012e50:	e3fff766 	bsr      	0x8011d1c	// 8011d1c <HAL_GPIO_WritePin>
	ST7789_DC_Set();
 8012e54:	3201      	movi      	r2, 1
 8012e56:	ea210040 	movih      	r1, 64
 8012e5a:	ea80014e 	lrw      	r0, 0x40011400	// 8013390 <ST7789_Init+0x860>
 8012e5e:	e3fff75f 	bsr      	0x8011d1c	// 8011d1c <HAL_GPIO_WritePin>
	HAL_SPI_Transmit(&ST7789_SPI_PORT, &data, sizeof(data), HAL_MAX_DELAY);
 8012e62:	3300      	movi      	r3, 0
 8012e64:	2b00      	subi      	r3, 1
 8012e66:	e42e0014 	addi      	r1, r14, 21
 8012e6a:	3201      	movi      	r2, 1
 8012e6c:	6c13      	mov      	r0, r4
 8012e6e:	e3fff859 	bsr      	0x8011f20	// 8011f20 <HAL_SPI_Transmit>
	ST7789_UnSelect();
 8012e72:	3201      	movi      	r2, 1
 8012e74:	ea210080 	movih      	r1, 128
 8012e78:	ea800146 	lrw      	r0, 0x40011400	// 8013390 <ST7789_Init+0x860>
 8012e7c:	e3fff750 	bsr      	0x8011d1c	// 8011d1c <HAL_GPIO_WritePin>
 8012e80:	3300      	movi      	r3, 0
 8012e82:	2b3d      	subi      	r3, 62
	ST7789_Select();
 8012e84:	3200      	movi      	r2, 0
 8012e86:	ea210080 	movih      	r1, 128
 8012e8a:	ea800142 	lrw      	r0, 0x40011400	// 8013390 <ST7789_Init+0x860>
 8012e8e:	dc6e0014 	st.b      	r3, (r14, 0x14)
 8012e92:	e3fff745 	bsr      	0x8011d1c	// 8011d1c <HAL_GPIO_WritePin>
	ST7789_DC_Clr();
 8012e96:	3200      	movi      	r2, 0
 8012e98:	ea210040 	movih      	r1, 64
 8012e9c:	ea80013d 	lrw      	r0, 0x40011400	// 8013390 <ST7789_Init+0x860>
 8012ea0:	e3fff73e 	bsr      	0x8011d1c	// 8011d1c <HAL_GPIO_WritePin>
	HAL_SPI_Transmit(&ST7789_SPI_PORT, &cmd, sizeof(cmd), HAL_MAX_DELAY);
 8012ea4:	3300      	movi      	r3, 0
 8012ea6:	2b00      	subi      	r3, 1
 8012ea8:	1905      	addi      	r1, r14, 20
 8012eaa:	3201      	movi      	r2, 1
 8012eac:	6c13      	mov      	r0, r4
 8012eae:	e3fff839 	bsr      	0x8011f20	// 8011f20 <HAL_SPI_Transmit>
	ST7789_UnSelect();
 8012eb2:	3201      	movi      	r2, 1
 8012eb4:	ea210080 	movih      	r1, 128
 8012eb8:	ea800136 	lrw      	r0, 0x40011400	// 8013390 <ST7789_Init+0x860>
 8012ebc:	e3fff730 	bsr      	0x8011d1c	// 8011d1c <HAL_GPIO_WritePin>
 8012ec0:	3301      	movi      	r3, 1
	ST7789_Select();
 8012ec2:	3200      	movi      	r2, 0
 8012ec4:	ea210080 	movih      	r1, 128
 8012ec8:	ea800132 	lrw      	r0, 0x40011400	// 8013390 <ST7789_Init+0x860>
 8012ecc:	dc6e0013 	st.b      	r3, (r14, 0x13)
 8012ed0:	e3fff726 	bsr      	0x8011d1c	// 8011d1c <HAL_GPIO_WritePin>
	ST7789_DC_Set();
 8012ed4:	3201      	movi      	r2, 1
 8012ed6:	ea210040 	movih      	r1, 64
 8012eda:	ea80012e 	lrw      	r0, 0x40011400	// 8013390 <ST7789_Init+0x860>
 8012ede:	e3fff71f 	bsr      	0x8011d1c	// 8011d1c <HAL_GPIO_WritePin>
	HAL_SPI_Transmit(&ST7789_SPI_PORT, &data, sizeof(data), HAL_MAX_DELAY);
 8012ee2:	3300      	movi      	r3, 0
 8012ee4:	2b00      	subi      	r3, 1
 8012ee6:	e42e0012 	addi      	r1, r14, 19
 8012eea:	3201      	movi      	r2, 1
 8012eec:	6c13      	mov      	r0, r4
 8012eee:	e3fff819 	bsr      	0x8011f20	// 8011f20 <HAL_SPI_Transmit>
	ST7789_UnSelect();
 8012ef2:	3201      	movi      	r2, 1
 8012ef4:	ea210080 	movih      	r1, 128
 8012ef8:	ea800126 	lrw      	r0, 0x40011400	// 8013390 <ST7789_Init+0x860>
 8012efc:	e3fff710 	bsr      	0x8011d1c	// 8011d1c <HAL_GPIO_WritePin>
 8012f00:	3300      	movi      	r3, 0
 8012f02:	2b3c      	subi      	r3, 61
	ST7789_Select();
 8012f04:	3200      	movi      	r2, 0
 8012f06:	ea210080 	movih      	r1, 128
 8012f0a:	ea800122 	lrw      	r0, 0x40011400	// 8013390 <ST7789_Init+0x860>
 8012f0e:	dc6e0012 	st.b      	r3, (r14, 0x12)
 8012f12:	e3fff705 	bsr      	0x8011d1c	// 8011d1c <HAL_GPIO_WritePin>
	ST7789_DC_Clr();
 8012f16:	3200      	movi      	r2, 0
 8012f18:	ea210040 	movih      	r1, 64
 8012f1c:	ea80011d 	lrw      	r0, 0x40011400	// 8013390 <ST7789_Init+0x860>
 8012f20:	e3fff6fe 	bsr      	0x8011d1c	// 8011d1c <HAL_GPIO_WritePin>
	HAL_SPI_Transmit(&ST7789_SPI_PORT, &cmd, sizeof(cmd), HAL_MAX_DELAY);
 8012f24:	3300      	movi      	r3, 0
 8012f26:	2b00      	subi      	r3, 1
 8012f28:	e42e0011 	addi      	r1, r14, 18
 8012f2c:	3201      	movi      	r2, 1
 8012f2e:	6c13      	mov      	r0, r4
 8012f30:	e3fff7f8 	bsr      	0x8011f20	// 8011f20 <HAL_SPI_Transmit>
	ST7789_UnSelect();
 8012f34:	3201      	movi      	r2, 1
 8012f36:	ea210080 	movih      	r1, 128
 8012f3a:	ea800116 	lrw      	r0, 0x40011400	// 8013390 <ST7789_Init+0x860>
 8012f3e:	e3fff6ef 	bsr      	0x8011d1c	// 8011d1c <HAL_GPIO_WritePin>
 8012f42:	3312      	movi      	r3, 18
	ST7789_Select();
 8012f44:	3200      	movi      	r2, 0
 8012f46:	ea210080 	movih      	r1, 128
 8012f4a:	ea800112 	lrw      	r0, 0x40011400	// 8013390 <ST7789_Init+0x860>
 8012f4e:	dc6e0011 	st.b      	r3, (r14, 0x11)
 8012f52:	e3fff6e5 	bsr      	0x8011d1c	// 8011d1c <HAL_GPIO_WritePin>
	ST7789_DC_Set();
 8012f56:	3201      	movi      	r2, 1
 8012f58:	ea210040 	movih      	r1, 64
 8012f5c:	ea80010d 	lrw      	r0, 0x40011400	// 8013390 <ST7789_Init+0x860>
 8012f60:	e3fff6de 	bsr      	0x8011d1c	// 8011d1c <HAL_GPIO_WritePin>
	HAL_SPI_Transmit(&ST7789_SPI_PORT, &data, sizeof(data), HAL_MAX_DELAY);
 8012f64:	3300      	movi      	r3, 0
 8012f66:	2b00      	subi      	r3, 1
 8012f68:	e42e0010 	addi      	r1, r14, 17
 8012f6c:	3201      	movi      	r2, 1
 8012f6e:	6c13      	mov      	r0, r4
 8012f70:	e3fff7d8 	bsr      	0x8011f20	// 8011f20 <HAL_SPI_Transmit>
	ST7789_UnSelect();
 8012f74:	3201      	movi      	r2, 1
 8012f76:	ea210080 	movih      	r1, 128
 8012f7a:	ea800106 	lrw      	r0, 0x40011400	// 8013390 <ST7789_Init+0x860>
 8012f7e:	e3fff6cf 	bsr      	0x8011d1c	// 8011d1c <HAL_GPIO_WritePin>
 8012f82:	3300      	movi      	r3, 0
 8012f84:	2b3b      	subi      	r3, 60
	ST7789_Select();
 8012f86:	3200      	movi      	r2, 0
 8012f88:	ea210080 	movih      	r1, 128
 8012f8c:	ea800101 	lrw      	r0, 0x40011400	// 8013390 <ST7789_Init+0x860>
 8012f90:	dc6e0010 	st.b      	r3, (r14, 0x10)
 8012f94:	e3fff6c4 	bsr      	0x8011d1c	// 8011d1c <HAL_GPIO_WritePin>
	ST7789_DC_Clr();
 8012f98:	3200      	movi      	r2, 0
 8012f9a:	ea210040 	movih      	r1, 64
 8012f9e:	0002      	lrw      	r0, 0x40011400	// 8013390 <ST7789_Init+0x860>
 8012fa0:	e3fff6be 	bsr      	0x8011d1c	// 8011d1c <HAL_GPIO_WritePin>
	HAL_SPI_Transmit(&ST7789_SPI_PORT, &cmd, sizeof(cmd), HAL_MAX_DELAY);
 8012fa4:	3300      	movi      	r3, 0
 8012fa6:	2b00      	subi      	r3, 1
 8012fa8:	1904      	addi      	r1, r14, 16
 8012faa:	3201      	movi      	r2, 1
 8012fac:	6c13      	mov      	r0, r4
 8012fae:	e3fff7b9 	bsr      	0x8011f20	// 8011f20 <HAL_SPI_Transmit>
	ST7789_UnSelect();
 8012fb2:	3201      	movi      	r2, 1
 8012fb4:	ea210080 	movih      	r1, 128
 8012fb8:	0009      	lrw      	r0, 0x40011400	// 8013390 <ST7789_Init+0x860>
 8012fba:	e3fff6b1 	bsr      	0x8011d1c	// 8011d1c <HAL_GPIO_WritePin>
 8012fbe:	ea0b0020 	movi      	r11, 32
	ST7789_Select();
 8012fc2:	3200      	movi      	r2, 0
 8012fc4:	ea210080 	movih      	r1, 128
 8012fc8:	000d      	lrw      	r0, 0x40011400	// 8013390 <ST7789_Init+0x860>
 8012fca:	dd6e000f 	st.b      	r11, (r14, 0xf)
 8012fce:	e3fff6a7 	bsr      	0x8011d1c	// 8011d1c <HAL_GPIO_WritePin>
	ST7789_DC_Set();
 8012fd2:	3201      	movi      	r2, 1
 8012fd4:	ea210040 	movih      	r1, 64
 8012fd8:	0011      	lrw      	r0, 0x40011400	// 8013390 <ST7789_Init+0x860>
 8012fda:	e3fff6a1 	bsr      	0x8011d1c	// 8011d1c <HAL_GPIO_WritePin>
	HAL_SPI_Transmit(&ST7789_SPI_PORT, &data, sizeof(data), HAL_MAX_DELAY);
 8012fde:	3300      	movi      	r3, 0
 8012fe0:	2b00      	subi      	r3, 1
 8012fe2:	e42e000e 	addi      	r1, r14, 15
 8012fe6:	3201      	movi      	r2, 1
 8012fe8:	6c13      	mov      	r0, r4
 8012fea:	e3fff79b 	bsr      	0x8011f20	// 8011f20 <HAL_SPI_Transmit>
	ST7789_UnSelect();
 8012fee:	3201      	movi      	r2, 1
 8012ff0:	ea210080 	movih      	r1, 128
 8012ff4:	0018      	lrw      	r0, 0x40011400	// 8013390 <ST7789_Init+0x860>
 8012ff6:	e3fff693 	bsr      	0x8011d1c	// 8011d1c <HAL_GPIO_WritePin>
 8012ffa:	3300      	movi      	r3, 0
 8012ffc:	2b39      	subi      	r3, 58
	ST7789_Select();
 8012ffe:	3200      	movi      	r2, 0
 8013000:	ea210080 	movih      	r1, 128
 8013004:	001c      	lrw      	r0, 0x40011400	// 8013390 <ST7789_Init+0x860>
 8013006:	dc6e000e 	st.b      	r3, (r14, 0xe)
 801300a:	e3fff689 	bsr      	0x8011d1c	// 8011d1c <HAL_GPIO_WritePin>
	ST7789_DC_Clr();
 801300e:	3200      	movi      	r2, 0
 8013010:	ea210040 	movih      	r1, 64
 8013014:	0100      	lrw      	r0, 0x40011400	// 8013390 <ST7789_Init+0x860>
 8013016:	e3fff683 	bsr      	0x8011d1c	// 8011d1c <HAL_GPIO_WritePin>
	HAL_SPI_Transmit(&ST7789_SPI_PORT, &cmd, sizeof(cmd), HAL_MAX_DELAY);
 801301a:	3300      	movi      	r3, 0
 801301c:	2b00      	subi      	r3, 1
 801301e:	e42e000d 	addi      	r1, r14, 14
 8013022:	3201      	movi      	r2, 1
 8013024:	6c13      	mov      	r0, r4
 8013026:	e3fff77d 	bsr      	0x8011f20	// 8011f20 <HAL_SPI_Transmit>
	ST7789_UnSelect();
 801302a:	3201      	movi      	r2, 1
 801302c:	ea210080 	movih      	r1, 128
 8013030:	0107      	lrw      	r0, 0x40011400	// 8013390 <ST7789_Init+0x860>
 8013032:	e3fff675 	bsr      	0x8011d1c	// 8011d1c <HAL_GPIO_WritePin>
 8013036:	330f      	movi      	r3, 15
	ST7789_Select();
 8013038:	3200      	movi      	r2, 0
 801303a:	ea210080 	movih      	r1, 128
 801303e:	010a      	lrw      	r0, 0x40011400	// 8013390 <ST7789_Init+0x860>
 8013040:	dc6e000d 	st.b      	r3, (r14, 0xd)
 8013044:	e3fff66c 	bsr      	0x8011d1c	// 8011d1c <HAL_GPIO_WritePin>
	ST7789_DC_Set();
 8013048:	3201      	movi      	r2, 1
 801304a:	ea210040 	movih      	r1, 64
 801304e:	010e      	lrw      	r0, 0x40011400	// 8013390 <ST7789_Init+0x860>
 8013050:	e3fff666 	bsr      	0x8011d1c	// 8011d1c <HAL_GPIO_WritePin>
	HAL_SPI_Transmit(&ST7789_SPI_PORT, &data, sizeof(data), HAL_MAX_DELAY);
 8013054:	3300      	movi      	r3, 0
 8013056:	2b00      	subi      	r3, 1
 8013058:	e42e000c 	addi      	r1, r14, 13
 801305c:	3201      	movi      	r2, 1
 801305e:	6c13      	mov      	r0, r4
 8013060:	e3fff760 	bsr      	0x8011f20	// 8011f20 <HAL_SPI_Transmit>
 8013064:	3500      	movi      	r5, 0
	ST7789_UnSelect();
 8013066:	3201      	movi      	r2, 1
 8013068:	ea210080 	movih      	r1, 128
 801306c:	0116      	lrw      	r0, 0x40011400	// 8013390 <ST7789_Init+0x860>
 801306e:	e3fff657 	bsr      	0x8011d1c	// 8011d1c <HAL_GPIO_WritePin>
 8013072:	2d2f      	subi      	r5, 48
	ST7789_Select();
 8013074:	3200      	movi      	r2, 0
 8013076:	ea210080 	movih      	r1, 128
 801307a:	0119      	lrw      	r0, 0x40011400	// 8013390 <ST7789_Init+0x860>
 801307c:	dcae000c 	st.b      	r5, (r14, 0xc)
 8013080:	e3fff64e 	bsr      	0x8011d1c	// 8011d1c <HAL_GPIO_WritePin>
	ST7789_DC_Clr();
 8013084:	3200      	movi      	r2, 0
 8013086:	ea210040 	movih      	r1, 64
 801308a:	011d      	lrw      	r0, 0x40011400	// 8013390 <ST7789_Init+0x860>
 801308c:	e3fff648 	bsr      	0x8011d1c	// 8011d1c <HAL_GPIO_WritePin>
	HAL_SPI_Transmit(&ST7789_SPI_PORT, &cmd, sizeof(cmd), HAL_MAX_DELAY);
 8013090:	3300      	movi      	r3, 0
 8013092:	2b00      	subi      	r3, 1
 8013094:	1903      	addi      	r1, r14, 12
 8013096:	3201      	movi      	r2, 1
 8013098:	6c13      	mov      	r0, r4
 801309a:	e3fff743 	bsr      	0x8011f20	// 8011f20 <HAL_SPI_Transmit>
	ST7789_UnSelect();
 801309e:	3201      	movi      	r2, 1
 80130a0:	ea210080 	movih      	r1, 128
 80130a4:	0204      	lrw      	r0, 0x40011400	// 8013390 <ST7789_Init+0x860>
 80130a6:	e3fff63b 	bsr      	0x8011d1c	// 8011d1c <HAL_GPIO_WritePin>
 80130aa:	3300      	movi      	r3, 0
 80130ac:	2b5b      	subi      	r3, 92
	ST7789_Select();
 80130ae:	3200      	movi      	r2, 0
 80130b0:	ea210080 	movih      	r1, 128
 80130b4:	0208      	lrw      	r0, 0x40011400	// 8013390 <ST7789_Init+0x860>
 80130b6:	dc6e000b 	st.b      	r3, (r14, 0xb)
 80130ba:	e3fff631 	bsr      	0x8011d1c	// 8011d1c <HAL_GPIO_WritePin>
	ST7789_DC_Set();
 80130be:	3201      	movi      	r2, 1
 80130c0:	ea210040 	movih      	r1, 64
 80130c4:	020c      	lrw      	r0, 0x40011400	// 8013390 <ST7789_Init+0x860>
 80130c6:	e3fff62b 	bsr      	0x8011d1c	// 8011d1c <HAL_GPIO_WritePin>
	HAL_SPI_Transmit(&ST7789_SPI_PORT, &data, sizeof(data), HAL_MAX_DELAY);
 80130ca:	3300      	movi      	r3, 0
 80130cc:	2b00      	subi      	r3, 1
 80130ce:	e42e000a 	addi      	r1, r14, 11
 80130d2:	3201      	movi      	r2, 1
 80130d4:	6c13      	mov      	r0, r4
 80130d6:	e3fff725 	bsr      	0x8011f20	// 8011f20 <HAL_SPI_Transmit>
	ST7789_UnSelect();
 80130da:	3201      	movi      	r2, 1
 80130dc:	ea210080 	movih      	r1, 128
 80130e0:	0213      	lrw      	r0, 0x40011400	// 8013390 <ST7789_Init+0x860>
 80130e2:	e3fff61d 	bsr      	0x8011d1c	// 8011d1c <HAL_GPIO_WritePin>
 80130e6:	3300      	movi      	r3, 0
 80130e8:	2b5e      	subi      	r3, 95
	ST7789_Select();
 80130ea:	3200      	movi      	r2, 0
 80130ec:	ea210080 	movih      	r1, 128
 80130f0:	0217      	lrw      	r0, 0x40011400	// 8013390 <ST7789_Init+0x860>
 80130f2:	dc6e000a 	st.b      	r3, (r14, 0xa)
 80130f6:	e3fff613 	bsr      	0x8011d1c	// 8011d1c <HAL_GPIO_WritePin>
	ST7789_DC_Set();
 80130fa:	3201      	movi      	r2, 1
 80130fc:	ea210040 	movih      	r1, 64
 8013100:	021b      	lrw      	r0, 0x40011400	// 8013390 <ST7789_Init+0x860>
 8013102:	e3fff60d 	bsr      	0x8011d1c	// 8011d1c <HAL_GPIO_WritePin>
	HAL_SPI_Transmit(&ST7789_SPI_PORT, &data, sizeof(data), HAL_MAX_DELAY);
 8013106:	3300      	movi      	r3, 0
 8013108:	2b00      	subi      	r3, 1
 801310a:	e42e0009 	addi      	r1, r14, 10
 801310e:	3201      	movi      	r2, 1
 8013110:	6c13      	mov      	r0, r4
 8013112:	e3fff707 	bsr      	0x8011f20	// 8011f20 <HAL_SPI_Transmit>
	ST7789_UnSelect();
 8013116:	3201      	movi      	r2, 1
 8013118:	ea210080 	movih      	r1, 128
 801311c:	0302      	lrw      	r0, 0x40011400	// 8013390 <ST7789_Init+0x860>
 801311e:	e3fff5ff 	bsr      	0x8011d1c	// 8011d1c <HAL_GPIO_WritePin>
 8013122:	3300      	movi      	r3, 0
 8013124:	2b1f      	subi      	r3, 32
	ST7789_Select();
 8013126:	3200      	movi      	r2, 0
 8013128:	ea210080 	movih      	r1, 128
 801312c:	0306      	lrw      	r0, 0x40011400	// 8013390 <ST7789_Init+0x860>
 801312e:	dc6e0009 	st.b      	r3, (r14, 0x9)
 8013132:	e3fff5f5 	bsr      	0x8011d1c	// 8011d1c <HAL_GPIO_WritePin>
	ST7789_DC_Clr();
 8013136:	3200      	movi      	r2, 0
 8013138:	ea210040 	movih      	r1, 64
 801313c:	030a      	lrw      	r0, 0x40011400	// 8013390 <ST7789_Init+0x860>
 801313e:	e3fff5ef 	bsr      	0x8011d1c	// 8011d1c <HAL_GPIO_WritePin>
	HAL_SPI_Transmit(&ST7789_SPI_PORT, &cmd, sizeof(cmd), HAL_MAX_DELAY);
 8013142:	3300      	movi      	r3, 0
 8013144:	2b00      	subi      	r3, 1
 8013146:	e42e0008 	addi      	r1, r14, 9
 801314a:	3201      	movi      	r2, 1
 801314c:	6c13      	mov      	r0, r4
 801314e:	e3fff6e9 	bsr      	0x8011f20	// 8011f20 <HAL_SPI_Transmit>
	ST7789_UnSelect();
 8013152:	3201      	movi      	r2, 1
 8013154:	ea210080 	movih      	r1, 128
 8013158:	0311      	lrw      	r0, 0x40011400	// 8013390 <ST7789_Init+0x860>
 801315a:	e3fff5e1 	bsr      	0x8011d1c	// 8011d1c <HAL_GPIO_WritePin>
		uint8_t data[] = {0xD0, 0x04, 0x0D, 0x11, 0x13, 0x2B, 0x3F, 0x54, 0x4C, 0x18, 0x0D, 0x0B, 0x1F, 0x23};
 801315e:	322b      	movi      	r2, 43
 8013160:	dc4e0025 	st.b      	r2, (r14, 0x25)
 8013164:	3254      	movi      	r2, 84
 8013166:	dc4e0027 	st.b      	r2, (r14, 0x27)
 801316a:	324c      	movi      	r2, 76
 801316c:	330d      	movi      	r3, 13
 801316e:	dc4e0028 	st.b      	r2, (r14, 0x28)
 8013172:	3218      	movi      	r2, 24
 8013174:	ea0c0004 	movi      	r12, 4
 8013178:	3711      	movi      	r7, 17
 801317a:	3613      	movi      	r6, 19
 801317c:	ea08001f 	movi      	r8, 31
 8013180:	dc6e0022 	st.b      	r3, (r14, 0x22)
 8013184:	ea10003f 	movi      	r16, 63
 8013188:	dc4e0029 	st.b      	r2, (r14, 0x29)
 801318c:	dc6e002a 	st.b      	r3, (r14, 0x2a)
 8013190:	ea0a0023 	movi      	r10, 35
 8013194:	330b      	movi      	r3, 11
	ST7789_Select();
 8013196:	3200      	movi      	r2, 0
 8013198:	ea210080 	movih      	r1, 128
 801319c:	131d      	lrw      	r0, 0x40011400	// 8013390 <ST7789_Init+0x860>
		uint8_t data[] = {0xD0, 0x04, 0x0D, 0x11, 0x13, 0x2B, 0x3F, 0x54, 0x4C, 0x18, 0x0D, 0x0B, 0x1F, 0x23};
 801319e:	dd8e0021 	st.b      	r12, (r14, 0x21)
 80131a2:	dd8e2000 	st.w      	r12, (r14, 0x0)
 80131a6:	dc6e002b 	st.b      	r3, (r14, 0x2b)
 80131aa:	dcae0020 	st.b      	r5, (r14, 0x20)
 80131ae:	dcee0023 	st.b      	r7, (r14, 0x23)
 80131b2:	dcce0024 	st.b      	r6, (r14, 0x24)
 80131b6:	de0e0026 	st.b      	r16, (r14, 0x26)
 80131ba:	dd0e002c 	st.b      	r8, (r14, 0x2c)
 80131be:	dd4e002d 	st.b      	r10, (r14, 0x2d)
	ST7789_Select();
 80131c2:	e3fff5ad 	bsr      	0x8011d1c	// 8011d1c <HAL_GPIO_WritePin>
	ST7789_DC_Set();
 80131c6:	3201      	movi      	r2, 1
 80131c8:	ea210040 	movih      	r1, 64
 80131cc:	1311      	lrw      	r0, 0x40011400	// 8013390 <ST7789_Init+0x860>
 80131ce:	e3fff5a7 	bsr      	0x8011d1c	// 8011d1c <HAL_GPIO_WritePin>
			HAL_SPI_Transmit(&ST7789_SPI_PORT, buff, chunk_size, HAL_MAX_DELAY);
 80131d2:	3300      	movi      	r3, 0
 80131d4:	2b00      	subi      	r3, 1
 80131d6:	1908      	addi      	r1, r14, 32
 80131d8:	320e      	movi      	r2, 14
 80131da:	6c13      	mov      	r0, r4
 80131dc:	e3fff6a2 	bsr      	0x8011f20	// 8011f20 <HAL_SPI_Transmit>
	ST7789_UnSelect();
 80131e0:	3201      	movi      	r2, 1
 80131e2:	ea210080 	movih      	r1, 128
 80131e6:	130b      	lrw      	r0, 0x40011400	// 8013390 <ST7789_Init+0x860>
 80131e8:	e3fff59a 	bsr      	0x8011d1c	// 8011d1c <HAL_GPIO_WritePin>
 80131ec:	3300      	movi      	r3, 0
 80131ee:	2b1e      	subi      	r3, 31
	ST7789_Select();
 80131f0:	3200      	movi      	r2, 0
 80131f2:	ea210080 	movih      	r1, 128
 80131f6:	1307      	lrw      	r0, 0x40011400	// 8013390 <ST7789_Init+0x860>
 80131f8:	dc6e0008 	st.b      	r3, (r14, 0x8)
 80131fc:	e3fff590 	bsr      	0x8011d1c	// 8011d1c <HAL_GPIO_WritePin>
	ST7789_DC_Clr();
 8013200:	3200      	movi      	r2, 0
 8013202:	ea210040 	movih      	r1, 64
 8013206:	1303      	lrw      	r0, 0x40011400	// 8013390 <ST7789_Init+0x860>
 8013208:	e3fff58a 	bsr      	0x8011d1c	// 8011d1c <HAL_GPIO_WritePin>
	HAL_SPI_Transmit(&ST7789_SPI_PORT, &cmd, sizeof(cmd), HAL_MAX_DELAY);
 801320c:	3300      	movi      	r3, 0
 801320e:	2b00      	subi      	r3, 1
 8013210:	1902      	addi      	r1, r14, 8
 8013212:	3201      	movi      	r2, 1
 8013214:	6c13      	mov      	r0, r4
 8013216:	e3fff685 	bsr      	0x8011f20	// 8011f20 <HAL_SPI_Transmit>
	ST7789_UnSelect();
 801321a:	3201      	movi      	r2, 1
 801321c:	ea210080 	movih      	r1, 128
 8013220:	121c      	lrw      	r0, 0x40011400	// 8013390 <ST7789_Init+0x860>
 8013222:	e3fff57d 	bsr      	0x8011d1c	// 8011d1c <HAL_GPIO_WritePin>
		uint8_t data[] = {0xD0, 0x04, 0x0C, 0x11, 0x13, 0x2C, 0x3F, 0x44, 0x51, 0x2F, 0x1F, 0x1F, 0x20, 0x23};
 8013226:	3344      	movi      	r3, 68
 8013228:	dc6e0027 	st.b      	r3, (r14, 0x27)
 801322c:	3351      	movi      	r3, 81
 801322e:	d98e2000 	ld.w      	r12, (r14, 0x0)
 8013232:	dc6e0028 	st.b      	r3, (r14, 0x28)
	ST7789_Select();
 8013236:	3200      	movi      	r2, 0
		uint8_t data[] = {0xD0, 0x04, 0x0C, 0x11, 0x13, 0x2C, 0x3F, 0x44, 0x51, 0x2F, 0x1F, 0x1F, 0x20, 0x23};
 8013238:	332f      	movi      	r3, 47
	ST7789_Select();
 801323a:	ea210080 	movih      	r1, 128
 801323e:	1215      	lrw      	r0, 0x40011400	// 8013390 <ST7789_Init+0x860>
		uint8_t data[] = {0xD0, 0x04, 0x0C, 0x11, 0x13, 0x2C, 0x3F, 0x44, 0x51, 0x2F, 0x1F, 0x1F, 0x20, 0x23};
 8013240:	dd8e0021 	st.b      	r12, (r14, 0x21)
 8013244:	dc6e0029 	st.b      	r3, (r14, 0x29)
 8013248:	dcae0020 	st.b      	r5, (r14, 0x20)
 801324c:	dd2e0022 	st.b      	r9, (r14, 0x22)
 8013250:	dcee0023 	st.b      	r7, (r14, 0x23)
 8013254:	dcce0024 	st.b      	r6, (r14, 0x24)
 8013258:	de2e0025 	st.b      	r17, (r14, 0x25)
 801325c:	de0e0026 	st.b      	r16, (r14, 0x26)
 8013260:	dd0e002a 	st.b      	r8, (r14, 0x2a)
 8013264:	dd0e002b 	st.b      	r8, (r14, 0x2b)
 8013268:	dd6e002c 	st.b      	r11, (r14, 0x2c)
 801326c:	dd4e002d 	st.b      	r10, (r14, 0x2d)
	ST7789_Select();
 8013270:	e3fff556 	bsr      	0x8011d1c	// 8011d1c <HAL_GPIO_WritePin>
	ST7789_DC_Set();
 8013274:	3201      	movi      	r2, 1
 8013276:	ea210040 	movih      	r1, 64
 801327a:	1206      	lrw      	r0, 0x40011400	// 8013390 <ST7789_Init+0x860>
 801327c:	e3fff550 	bsr      	0x8011d1c	// 8011d1c <HAL_GPIO_WritePin>
			HAL_SPI_Transmit(&ST7789_SPI_PORT, buff, chunk_size, HAL_MAX_DELAY);
 8013280:	3300      	movi      	r3, 0
 8013282:	2b00      	subi      	r3, 1
 8013284:	1908      	addi      	r1, r14, 32
 8013286:	320e      	movi      	r2, 14
 8013288:	6c13      	mov      	r0, r4
 801328a:	e3fff64b 	bsr      	0x8011f20	// 8011f20 <HAL_SPI_Transmit>
	ST7789_UnSelect();
 801328e:	3201      	movi      	r2, 1
 8013290:	ea210080 	movih      	r1, 128
 8013294:	111f      	lrw      	r0, 0x40011400	// 8013390 <ST7789_Init+0x860>
 8013296:	e3fff543 	bsr      	0x8011d1c	// 8011d1c <HAL_GPIO_WritePin>
 801329a:	3321      	movi      	r3, 33
	ST7789_Select();
 801329c:	3200      	movi      	r2, 0
 801329e:	ea210080 	movih      	r1, 128
 80132a2:	111c      	lrw      	r0, 0x40011400	// 8013390 <ST7789_Init+0x860>
 80132a4:	dc6e0020 	st.b      	r3, (r14, 0x20)
 80132a8:	e3fff53a 	bsr      	0x8011d1c	// 8011d1c <HAL_GPIO_WritePin>
	ST7789_DC_Clr();
 80132ac:	3200      	movi      	r2, 0
 80132ae:	ea210040 	movih      	r1, 64
 80132b2:	1118      	lrw      	r0, 0x40011400	// 8013390 <ST7789_Init+0x860>
 80132b4:	e3fff534 	bsr      	0x8011d1c	// 8011d1c <HAL_GPIO_WritePin>
	HAL_SPI_Transmit(&ST7789_SPI_PORT, &cmd, sizeof(cmd), HAL_MAX_DELAY);
 80132b8:	3300      	movi      	r3, 0
 80132ba:	2b00      	subi      	r3, 1
 80132bc:	1908      	addi      	r1, r14, 32
 80132be:	3201      	movi      	r2, 1
 80132c0:	6c13      	mov      	r0, r4
 80132c2:	e3fff62f 	bsr      	0x8011f20	// 8011f20 <HAL_SPI_Transmit>
	ST7789_UnSelect();
 80132c6:	3201      	movi      	r2, 1
 80132c8:	ea210080 	movih      	r1, 128
 80132cc:	1111      	lrw      	r0, 0x40011400	// 8013390 <ST7789_Init+0x860>
 80132ce:	e3fff527 	bsr      	0x8011d1c	// 8011d1c <HAL_GPIO_WritePin>
	ST7789_Select();
 80132d2:	3200      	movi      	r2, 0
 80132d4:	ea210080 	movih      	r1, 128
 80132d8:	110e      	lrw      	r0, 0x40011400	// 8013390 <ST7789_Init+0x860>
 80132da:	dcee0007 	st.b      	r7, (r14, 0x7)
 80132de:	e3fff51f 	bsr      	0x8011d1c	// 8011d1c <HAL_GPIO_WritePin>
	ST7789_DC_Clr();
 80132e2:	3200      	movi      	r2, 0
 80132e4:	ea210040 	movih      	r1, 64
 80132e8:	110a      	lrw      	r0, 0x40011400	// 8013390 <ST7789_Init+0x860>
 80132ea:	e3fff519 	bsr      	0x8011d1c	// 8011d1c <HAL_GPIO_WritePin>
	HAL_SPI_Transmit(&ST7789_SPI_PORT, &cmd, sizeof(cmd), HAL_MAX_DELAY);
 80132ee:	3300      	movi      	r3, 0
 80132f0:	2b00      	subi      	r3, 1
 80132f2:	e42e0006 	addi      	r1, r14, 7
 80132f6:	3201      	movi      	r2, 1
 80132f8:	6c13      	mov      	r0, r4
 80132fa:	e3fff613 	bsr      	0x8011f20	// 8011f20 <HAL_SPI_Transmit>
	ST7789_UnSelect();
 80132fe:	3201      	movi      	r2, 1
 8013300:	ea210080 	movih      	r1, 128
 8013304:	1103      	lrw      	r0, 0x40011400	// 8013390 <ST7789_Init+0x860>
 8013306:	e3fff50b 	bsr      	0x8011d1c	// 8011d1c <HAL_GPIO_WritePin>
	ST7789_Select();
 801330a:	3200      	movi      	r2, 0
 801330c:	ea210080 	movih      	r1, 128
 8013310:	1100      	lrw      	r0, 0x40011400	// 8013390 <ST7789_Init+0x860>
 8013312:	dcce0006 	st.b      	r6, (r14, 0x6)
 8013316:	e3fff503 	bsr      	0x8011d1c	// 8011d1c <HAL_GPIO_WritePin>
	ST7789_DC_Clr();
 801331a:	3200      	movi      	r2, 0
 801331c:	ea210040 	movih      	r1, 64
 8013320:	101c      	lrw      	r0, 0x40011400	// 8013390 <ST7789_Init+0x860>
 8013322:	e3fff4fd 	bsr      	0x8011d1c	// 8011d1c <HAL_GPIO_WritePin>
	HAL_SPI_Transmit(&ST7789_SPI_PORT, &cmd, sizeof(cmd), HAL_MAX_DELAY);
 8013326:	3300      	movi      	r3, 0
 8013328:	2b00      	subi      	r3, 1
 801332a:	e42e0005 	addi      	r1, r14, 6
 801332e:	3201      	movi      	r2, 1
 8013330:	6c13      	mov      	r0, r4
 8013332:	e3fff5f7 	bsr      	0x8011f20	// 8011f20 <HAL_SPI_Transmit>
	ST7789_UnSelect();
 8013336:	3201      	movi      	r2, 1
 8013338:	ea210080 	movih      	r1, 128
 801333c:	1015      	lrw      	r0, 0x40011400	// 8013390 <ST7789_Init+0x860>
 801333e:	e3fff4ef 	bsr      	0x8011d1c	// 8011d1c <HAL_GPIO_WritePin>
 8013342:	3329      	movi      	r3, 41
	ST7789_Select();
 8013344:	3200      	movi      	r2, 0
 8013346:	ea210080 	movih      	r1, 128
 801334a:	1012      	lrw      	r0, 0x40011400	// 8013390 <ST7789_Init+0x860>
 801334c:	dc6e0005 	st.b      	r3, (r14, 0x5)
 8013350:	e3fff4e6 	bsr      	0x8011d1c	// 8011d1c <HAL_GPIO_WritePin>
	ST7789_DC_Clr();
 8013354:	3200      	movi      	r2, 0
 8013356:	ea210040 	movih      	r1, 64
 801335a:	100e      	lrw      	r0, 0x40011400	// 8013390 <ST7789_Init+0x860>
 801335c:	e3fff4e0 	bsr      	0x8011d1c	// 8011d1c <HAL_GPIO_WritePin>
	HAL_SPI_Transmit(&ST7789_SPI_PORT, &cmd, sizeof(cmd), HAL_MAX_DELAY);
 8013360:	3300      	movi      	r3, 0
 8013362:	2b00      	subi      	r3, 1
 8013364:	e42e0004 	addi      	r1, r14, 5
 8013368:	3201      	movi      	r2, 1
 801336a:	6c13      	mov      	r0, r4
 801336c:	e3fff5da 	bsr      	0x8011f20	// 8011f20 <HAL_SPI_Transmit>
	ST7789_UnSelect();
 8013370:	3201      	movi      	r2, 1
 8013372:	ea210080 	movih      	r1, 128
 8013376:	1007      	lrw      	r0, 0x40011400	// 8013390 <ST7789_Init+0x860>
 8013378:	e3fff4d2 	bsr      	0x8011d1c	// 8011d1c <HAL_GPIO_WritePin>
	HAL_Delay(50);
 801337c:	3032      	movi      	r0, 50
 801337e:	e3fff56f 	bsr      	0x8011e5c	// 8011e5c <HAL_Delay>
	ST7789_Fill_Color(BLACK);				//	Fill with Black.
 8013382:	3000      	movi      	r0, 0
 8013384:	e3fffb8c 	bsr      	0x8012a9c	// 8012a9c <ST7789_Fill_Color>
}
 8013388:	140c      	addi      	r14, r14, 48
 801338a:	ebc00058 	pop      	r4-r11, r15, r16-r17
 801338e:	0000      	.short	0x0000
 8013390:	40011400 	.long	0x40011400
 8013394:	200018b4 	.long	0x200018b4

08013398 <ST7789_DrawPixel>:
{
 8013398:	14d1      	push      	r4, r15
 801339a:	1421      	subi      	r14, r14, 4
	if ((x < 0) || (x >= ST7789_WIDTH) ||
 801339c:	eb0000ef 	cmphsi      	r0, 240
{
 80133a0:	6cc7      	mov      	r3, r1
 80133a2:	6d0b      	mov      	r4, r2
	if ((x < 0) || (x >= ST7789_WIDTH) ||
 80133a4:	0804      	bt      	0x80133ac	// 80133ac <ST7789_DrawPixel+0x14>
		 (y < 0) || (y >= ST7789_HEIGHT))	return;
 80133a6:	eb0100ef 	cmphsi      	r1, 240
 80133aa:	0c03      	bf      	0x80133b0	// 80133b0 <ST7789_DrawPixel+0x18>
}
 80133ac:	1401      	addi      	r14, r14, 4
 80133ae:	1491      	pop      	r4, r15
	ST7789_SetAddressWindow(x, y, x, y);
 80133b0:	6c83      	mov      	r2, r0
 80133b2:	e3fffabd 	bsr      	0x801292c	// 801292c <ST7789_SetAddressWindow>
	uint8_t data[] = {color >> 8, color & 0xFF};
 80133b6:	4c68      	lsri      	r3, r4, 8
	ST7789_Select();
 80133b8:	3200      	movi      	r2, 0
 80133ba:	ea210080 	movih      	r1, 128
 80133be:	1015      	lrw      	r0, 0x40011400	// 8013410 <ST7789_DrawPixel+0x78>
	uint8_t data[] = {color >> 8, color & 0xFF};
 80133c0:	dc6e0000 	st.b      	r3, (r14, 0x0)
 80133c4:	dc8e0001 	st.b      	r4, (r14, 0x1)
	ST7789_Select();
 80133c8:	e3fff4aa 	bsr      	0x8011d1c	// 8011d1c <HAL_GPIO_WritePin>
	ST7789_Select();
 80133cc:	3200      	movi      	r2, 0
 80133ce:	ea210080 	movih      	r1, 128
 80133d2:	1010      	lrw      	r0, 0x40011400	// 8013410 <ST7789_DrawPixel+0x78>
 80133d4:	e3fff4a4 	bsr      	0x8011d1c	// 8011d1c <HAL_GPIO_WritePin>
	ST7789_DC_Set();
 80133d8:	3201      	movi      	r2, 1
 80133da:	ea210040 	movih      	r1, 64
 80133de:	100d      	lrw      	r0, 0x40011400	// 8013410 <ST7789_DrawPixel+0x78>
 80133e0:	e3fff49e 	bsr      	0x8011d1c	// 8011d1c <HAL_GPIO_WritePin>
			HAL_SPI_Transmit(&ST7789_SPI_PORT, buff, chunk_size, HAL_MAX_DELAY);
 80133e4:	3300      	movi      	r3, 0
 80133e6:	2b00      	subi      	r3, 1
 80133e8:	6c7b      	mov      	r1, r14
 80133ea:	3202      	movi      	r2, 2
 80133ec:	100a      	lrw      	r0, 0x200018b4	// 8013414 <ST7789_DrawPixel+0x7c>
 80133ee:	e3fff599 	bsr      	0x8011f20	// 8011f20 <HAL_SPI_Transmit>
	ST7789_UnSelect();
 80133f2:	3201      	movi      	r2, 1
 80133f4:	ea210080 	movih      	r1, 128
 80133f8:	1006      	lrw      	r0, 0x40011400	// 8013410 <ST7789_DrawPixel+0x78>
 80133fa:	e3fff491 	bsr      	0x8011d1c	// 8011d1c <HAL_GPIO_WritePin>
	ST7789_UnSelect();
 80133fe:	3201      	movi      	r2, 1
 8013400:	ea210080 	movih      	r1, 128
 8013404:	1003      	lrw      	r0, 0x40011400	// 8013410 <ST7789_DrawPixel+0x78>
 8013406:	e3fff48b 	bsr      	0x8011d1c	// 8011d1c <HAL_GPIO_WritePin>
}
 801340a:	1401      	addi      	r14, r14, 4
 801340c:	1491      	pop      	r4, r15
 801340e:	0000      	.short	0x0000
 8013410:	40011400 	.long	0x40011400
 8013414:	200018b4 	.long	0x200018b4

08013418 <ST7789_DrawLine>:
        uint16_t color) {
 8013418:	ebe00058 	push      	r4-r11, r15, r16-r17
 801341c:	1424      	subi      	r14, r14, 16
    uint16_t steep = ABS(y1 - y0) > ABS(x1 - x0);
 801341e:	c4230090 	subu      	r16, r3, r1
 8013422:	c4020091 	subu      	r17, r2, r0
 8013426:	c4100210 	abs      	r16, r16
 801342a:	c4110211 	abs      	r17, r17
    if (steep) {
 801342e:	c6110440 	cmplt      	r17, r16
        uint16_t color) {
 8013432:	6d0f      	mov      	r4, r3
    uint16_t steep = ABS(y1 - y0) > ABS(x1 - x0);
 8013434:	6f0f      	mov      	r12, r3
        uint16_t color) {
 8013436:	6ec7      	mov      	r11, r1
 8013438:	6e8b      	mov      	r10, r2
 801343a:	d8ce101e 	ld.h      	r6, (r14, 0x3c)
    uint16_t steep = ABS(y1 - y0) > ABS(x1 - x0);
 801343e:	6cc3      	mov      	r3, r0
    if (steep) {
 8013440:	0898      	bt      	0x8013570	// 8013570 <ST7789_DrawLine+0x158>
 8013442:	6c93      	mov      	r2, r4
 8013444:	6ec3      	mov      	r11, r0
 8013446:	6d2b      	mov      	r4, r10
 8013448:	c410482d 	lsli      	r13, r16, 0
 801344c:	6cc7      	mov      	r3, r1
 801344e:	6eb3      	mov      	r10, r12
 8013450:	6c07      	mov      	r0, r1
    if (x0 > x1) {
 8013452:	66d0      	cmphs      	r4, r11
 8013454:	087d      	bt      	0x801354e	// 801354e <ST7789_DrawLine+0x136>
    dx = x1 - x0;
 8013456:	c48b0092 	subu      	r18, r11, r4
 801345a:	c41255e9 	zext      	r9, r18, 15, 0
 801345e:	c443008d 	subu      	r13, r3, r2
    int16_t err = dx / 2;
 8013462:	74e7      	sexth      	r3, r9
 8013464:	4bbf      	lsri      	r5, r3, 31
    if (y0 < y1) {
 8013466:	6428      	cmphs      	r10, r0
    int16_t err = dx / 2;
 8013468:	614c      	addu      	r5, r3
 801346a:	c40d020d 	abs      	r13, r13
 801346e:	55a1      	asri      	r5, r5, 1
    if (y0 < y1) {
 8013470:	0883      	bt      	0x8013576	// 8013576 <ST7789_DrawLine+0x15e>
 8013472:	ea080001 	movi      	r8, 1
	uint8_t data[] = {color >> 8, color & 0xFF};
 8013476:	4e68      	lsri      	r3, r6, 8
 8013478:	b860      	st.w      	r3, (r14, 0x0)
 801347a:	7775      	zexth      	r13, r13
			HAL_SPI_Transmit(&ST7789_SPI_PORT, buff, chunk_size, HAL_MAX_DELAY);
 801347c:	1261      	lrw      	r3, 0x200018b4	// 8013580 <ST7789_DrawLine+0x168>
	ST7789_Select();
 801347e:	12e2      	lrw      	r7, 0x40011400	// 8013584 <ST7789_DrawLine+0x16c>
			HAL_SPI_Transmit(&ST7789_SPI_PORT, buff, chunk_size, HAL_MAX_DELAY);
 8013480:	b861      	st.w      	r3, (r14, 0x4)
 8013482:	0410      	br      	0x80134a2	// 80134a2 <ST7789_DrawLine+0x8a>
	if ((x < 0) || (x >= ST7789_WIDTH) ||
 8013484:	eb0a00ef 	cmphsi      	r10, 240
 8013488:	0804      	bt      	0x8013490	// 8013490 <ST7789_DrawLine+0x78>
		 (y < 0) || (y >= ST7789_HEIGHT))	return;
 801348a:	eb0400ef 	cmphsi      	r4, 240
 801348e:	0c59      	bf      	0x8013540	// 8013540 <ST7789_DrawLine+0x128>
        err -= dy;
 8013490:	6176      	subu      	r5, r13
 8013492:	7715      	zexth      	r12, r5
 8013494:	7573      	sexth      	r5, r12
        if (err < 0) {
 8013496:	e9850049 	blz      	r5, 0x8013528	// 8013528 <ST7789_DrawLine+0x110>
    for (; x0<=x1; x0++) {
 801349a:	2400      	addi      	r4, 1
 801349c:	7511      	zexth      	r4, r4
 801349e:	652c      	cmphs      	r11, r4
